Certificate:
    Data:
        Version: 3 (0x2)
        Serial Number: 268435660 (0x100000cc)
    Signature Algorithm: sha1WithRSAEncryption
        Issuer: C=DE, ST=Hessen, O=privacyidea, CN=CA001
        Validity
            Not Before: Nov 21 15:23:58 2016 GMT
            Not After : Nov 21 15:23:58 2017 GMT
        Subject: CN=Steve Test/emailAddress=steve@openssl.org
        Subject Public Key Info:
            Public Key Algorithm: rsaEncryption
                Public-Key: (2048 bit)
                Modulus:
                    00:d2:81:89:20:51:48:0f:73:f4:11:32:24:d5:1f:
                    1c:fd:5c:f5:b6:e6:c5:f0:52:81:dc:d2:af:66:4a:
                    7c:93:31:61:5c:af:d1:6d:06:70:03:60:7c:72:0c:
                    88:dd:49:cd:9e:02:6c:d2:5a:d7:53:0f:f3:da:be:
                    69:64:b5:0f:0c:00:e3:b3:50:47:a3:b3:9b:ba:13:
                    50:d6:58:5a:4b:ab:39:e0:11:ca:0a:27:67:03:78:
                    22:66:6d:92:1e:1b:5c:49:ae:e6:6b:d1:8e:3b:9d:
                    06:d3:c6:ac:4d:53:43:10:ab:e8:96:c1:87:82:97:
                    99:8f:20:d3:99:12:37:31:84:e1:8a:ff:29:03:5f:
                    22:90:3e:7f:9b:e0:20:c1:ad:dc:ae:4c:39:1a:31:
                    96:17:02:8c:b2:d9:b4:0d:20:12:9b:7d:86:54:fd:
                    33:fd:c1:2a:62:46:f8:60:96:cf:6e:01:6f:22:df:
                    13:47:e7:97:ec:05:72:23:a3:62:f8:fa:ef:ac:9c:
                    72:f0:37:cb:2f:37:cf:90:a8:27:51:86:c6:d7:78:
                    08:8f:7e:25:a2:15:70:a2:fb:1c:b6:15:5e:a0:97:
                    8b:81:4c:09:28:8a:27:3b:94:bc:71:db:5b:71:37:
                    9a:2b:16:e0:6f:b5:c9:f5:4b:4f:20:ba:65:cf:af:
                    ad:ad
                Exponent: 65537 (0x10001)
        X509v3 extensions:
            X509v3 Key Usage: 
                Digital Signature, Key Encipherment
            X509v3 Basic Constraints: 
                CA:FALSE
            Netscape Cert Type: 
                SSL Server
            Netscape Comment: 
                OpenSSL Generated Server Certificate
            X509v3 Subject Key Identifier: 
                E5:25:6D:3E:AF:0D:DD:3F:4C:F2:45:19:39:D5:14:DB:7E:9C:C0:AD
            X509v3 Authority Key Identifier: 
                keyid:F4:A7:C0:CC:91:46:AF:64:F3:91:F2:27:F8:C8:B2:6F:8A:87:32:73
                DirName:/C=DE/ST=Hessen/O=privacyidea/CN=CA001
                serial:FB:C8:EB:AC:83:CD:12:07

            X509v3 Extended Key Usage: 
                TLS Web Server Authentication
    Signature Algorithm: sha1WithRSAEncryption
         7d:17:48:9b:dc:f5:43:dc:43:6b:08:c3:68:27:45:41:26:13:
         5d:93:9b:86:0e:a3:19:de:21:f1:f0:fa:bc:25:71:b8:65:01:
         f0:5f:b8:94:16:60:a6:73:37:43:5c:c3:2e:3c:eb:8b:c8:85:
         66:3b:82:86:41:23:c1:8c:89:c6:b0:86:89:0b:50:4a:e3:c0:
         85:a6:54:f4:95:4b:54:09:5a:2f:f8:74:5a:53:01:f7:44:47:
         02:8e:c5:d3:8d:75:e1:89:4f:27:e0:7d:32:5c:95:86:18:56:
         f8:b9:bb:53:5f:c7:ac:5c:b5:87:d2:05:da:68:90:f3:f7:61:
         1c:70:03:0c:68:0c:f3:bb:8b:7d:0d:33:6f:83:10:3f:52:22:
         91:4e:70:db:c3:7b:50:20:f7:c8:b3:63:32:d1:d2:84:90:e4:
         7a:89:ce:5e:85:26:7c:2b:be:3e:1c:4c:7e:e1:d9:47:23:35:
         2e:53:56:b0:f6:a6:f7:e0:2f:f8:58:30:26:79:b5:62:22:72:
         26:46:9d:c0:e9:f7:cd:3f:56:a7:9d:30:fd:33:7f:f7:be:c2:
         58:67:cd:15:14:67:07:f6:6e:41:70:e3:1c:f5:54:1c:f3:58:
         42:12:c4:fb:5f:13:e5:8e:18:3e:6b:20:6a:e4:b0:96:53:d4:
         c1:44:d4:93
-----BEGIN CERTIFICATE-----
MIIECTCCAvGgAwIBAgIEEAAAzDANBgkqhkiG9w0BAQUFADBEMQswCQYDVQQGEwJE
RTEPMA0GA1UECAwGSGVzc2VuMRQwEgYDVQQKDAtwcml2YWN5aWRlYTEOMAwGA1UE
AwwFQ0EwMDEwHhcNMTYxMTIxMTUyMzU4WhcNMTcxMTIxMTUyMzU4WjA3MRMwEQYD
VQQDDApTdGV2ZSBUZXN0MSAwHgYJKoZIhvcNAQkBFhFzdGV2ZUBvcGVuc3NsLm9y
ZzCCASIwDQYJKoZIhvcNAQEBBQADggEPADCCAQoCggEBANKBiSBRSA9z9BEyJNUf
HP1c9bbmxfBSgdzSr2ZKfJMxYVyv0W0GcANgfHIMiN1JzZ4CbNJa11MP89q+aWS1
DwwA47NQR6Ozm7oTUNZYWkurOeARygonZwN4ImZtkh4bXEmu5mvRjjudBtPGrE1T
QxCr6JbBh4KXmY8g05kSNzGE4Yr/KQNfIpA+f5vgIMGt3K5MORoxlhcCjLLZtA0g
Ept9hlT9M/3BKmJG+GCWz24BbyLfE0fnl+wFciOjYvj676yccvA3yy83z5CoJ1GG
xtd4CI9+JaIVcKL7HLYVXqCXi4FMCSiKJzuUvHHbW3E3misW4G+1yfVLTyC6Zc+v
ra0CAwEAAaOCAQ4wggEKMAsGA1UdDwQEAwIFoDAJBgNVHRMEAjAAMBEGCWCGSAGG
+EIBAQQEAwIGQDAzBglghkgBhvhCAQ0EJhYkT3BlblNTTCBHZW5lcmF0ZWQgU2Vy
dmVyIENlcnRpZmljYXRlMB0GA1UdDgQWBBTlJW0+rw3dP0zyRRk51RTbfpzArTB0
BgNVHSMEbTBrgBT0p8DMkUavZPOR8if4yLJviocyc6FIpEYwRDELMAkGA1UEBhMC
REUxDzANBgNVBAgMBkhlc3NlbjEUMBIGA1UECgwLcHJpdmFjeWlkZWExDjAMBgNV
BAMMBUNBMDAxggkA+8jrrIPNEgcwEwYDVR0lBAwwCgYIKwYBBQUHAwEwDQYJKoZI
hvcNAQEFBQADggEBAH0XSJvc9UPcQ2sIw2gnRUEmE12Tm4YOoxneIfHw+rwlcbhl
AfBfuJQWYKZzN0Ncwy4864vIhWY7goZBI8GMicawhokLUErjwIWmVPSVS1QJWi/4
dFpTAfdERwKOxdONdeGJTyfgfTJclYYYVvi5u1Nfx6xctYfSBdpokPP3YRxwAwxo
DPO7i30NM2+DED9SIpFOcNvDe1Ag98izYzLR0oSQ5HqJzl6FJnwrvj4cTH7h2Ucj
NS5TVrD2pvfgL/hYMCZ5tWIiciZGncDp980/VqedMP0zf/e+wlhnzRUUZwf2bkFw
4xz1VBzzWEISxPtfE+WOGD5rIGrksJZT1MFE1JM=
-----END CERTIFICATE-----
