Certificate:
    Data:
        Version: 3 (0x2)
        Serial Number: 268435659 (0x100000cb)
    Signature Algorithm: sha1WithRSAEncryption
        Issuer: C=DE, ST=Hessen, O=privacyidea, CN=CA001
        Validity
            Not Before: Nov 21 15:23:57 2016 GMT
            Not After : Nov 21 15:23:57 2017 GMT
        Subject: C=DE, ST=Hessen, O=privacyidea, CN=usercert
        Subject Public Key Info:
            Public Key Algorithm: rsaEncryption
                Public-Key: (2048 bit)
                Modulus:
                    00:dc:2f:d1:5f:29:97:d4:7c:c3:53:c8:30:bd:4b:
                    67:70:2c:24:6b:b8:5e:eb:21:7a:48:12:56:7c:81:
                    5c:48:75:b6:68:eb:f6:f2:98:4e:50:51:d1:7f:6c:
                    73:f3:0a:a7:ae:be:48:5e:e5:d6:e1:d9:2a:7c:32:
                    6e:4e:fd:08:f6:5a:54:49:23:73:c3:b9:07:18:d1:
                    ef:b3:ac:f8:8a:dc:94:96:a4:90:3a:8e:74:df:e6:
                    0d:37:1b:bd:5b:b7:25:1a:56:39:da:6f:91:aa:5e:
                    1c:74:f3:f9:7c:14:01:83:12:65:76:c7:bb:fe:36:
                    5b:95:e9:72:65:83:ed:3e:98:30:71:fa:87:dd:a3:
                    36:5a:30:03:2e:26:e0:61:d1:bf:02:3f:b6:06:1f:
                    4a:89:28:1c:5c:a2:ff:4e:be:94:e6:8c:e0:da:82:
                    f1:9d:29:32:48:30:73:b4:04:f6:42:1e:be:f7:e2:
                    32:32:27:3c:9d:89:2f:70:3e:85:9a:6f:5c:c5:09:
                    c0:8c:32:2f:72:22:c9:d2:95:1f:b6:ac:72:60:72:
                    b7:82:4d:6b:ce:5b:e3:00:d0:d2:2f:58:c6:e0:10:
                    e5:51:ca:4d:3b:2e:e6:7e:ab:84:d6:56:f1:93:35:
                    a0:93:64:26:81:75:2f:91:b5:16:06:38:0b:db:cc:
                    2d:07
                Exponent: 65537 (0x10001)
        X509v3 extensions:
            X509v3 Key Usage: 
                Digital Signature, Key Encipherment
            X509v3 Basic Constraints: 
                CA:FALSE
            Netscape Cert Type: 
                SSL Server
            Netscape Comment: 
                OpenSSL Generated Server Certificate
            X509v3 Subject Key Identifier: 
                FC:14:D1:F0:4B:8D:00:90:F2:F5:B8:71:9E:4E:97:C3:92:54:AD:0B
            X509v3 Authority Key Identifier: 
                keyid:F4:A7:C0:CC:91:46:AF:64:F3:91:F2:27:F8:C8:B2:6F:8A:87:32:73
                DirName:/C=DE/ST=Hessen/O=privacyidea/CN=CA001
                serial:FB:C8:EB:AC:83:CD:12:07

            X509v3 Extended Key Usage: 
                TLS Web Server Authentication
    Signature Algorithm: sha1WithRSAEncryption
         a0:46:51:ec:06:4d:92:63:0b:73:83:f7:b6:36:db:e2:8c:07:
         2f:d8:92:ef:71:30:19:32:b1:84:f3:ad:40:ee:17:97:29:0d:
         c9:df:53:19:0f:d5:fb:42:ee:a1:1e:8c:5a:36:a3:d9:0f:1f:
         8e:37:f3:92:c0:df:5d:cb:23:00:2a:2e:69:5c:d1:71:2d:37:
         3e:a5:cb:cf:ce:b8:9b:a4:43:9e:21:74:af:66:68:49:d0:92:
         45:1c:cf:ec:53:62:28:7e:c9:31:f8:bd:05:46:d2:90:53:d7:
         0b:f4:cd:f9:3c:e4:5b:91:07:bc:6f:a8:d9:f4:3f:18:eb:15:
         8c:58:3c:39:c3:03:e7:65:ca:fe:f4:f5:e2:1f:13:7b:2e:fb:
         7a:7e:c9:3d:b7:05:b4:2d:df:82:fe:d1:3f:83:86:a1:07:87:
         5c:f3:2c:82:f8:f8:c1:ba:bf:15:eb:68:73:3b:1f:1e:d1:2f:
         ef:0e:88:61:c7:8d:0a:5e:35:c2:5c:d7:2b:51:85:1d:ae:38:
         1d:5d:40:04:38:19:80:2d:13:ba:60:43:ca:0b:27:7c:c6:56:
         cc:28:52:af:f4:8d:53:a6:af:5e:24:20:7d:35:dd:22:62:f7:
         59:69:87:c0:ac:2d:48:96:67:da:e0:56:93:f6:e0:72:c6:01:
         c3:7c:a8:dc
-----BEGIN CERTIFICATE-----
MIIEGTCCAwGgAwIBAgIEEAAAyzANBgkqhkiG9w0BAQUFADBEMQswCQYDVQQGEwJE
RTEPMA0GA1UECAwGSGVzc2VuMRQwEgYDVQQKDAtwcml2YWN5aWRlYTEOMAwGA1UE
AwwFQ0EwMDEwHhcNMTYxMTIxMTUyMzU3WhcNMTcxMTIxMTUyMzU3WjBHMQswCQYD
VQQGEwJERTEPMA0GA1UECAwGSGVzc2VuMRQwEgYDVQQKDAtwcml2YWN5aWRlYTER
MA8GA1UEAwwIdXNlcmNlcnQwggEiMA0GCSqGSIb3DQEBAQUAA4IBDwAwggEKAoIB
AQDcL9FfKZfUfMNTyDC9S2dwLCRruF7rIXpIElZ8gVxIdbZo6/bymE5QUdF/bHPz
Cqeuvkhe5dbh2Sp8Mm5O/Qj2WlRJI3PDuQcY0e+zrPiK3JSWpJA6jnTf5g03G71b
tyUaVjnab5GqXhx08/l8FAGDEmV2x7v+NluV6XJlg+0+mDBx+ofdozZaMAMuJuBh
0b8CP7YGH0qJKBxcov9OvpTmjODagvGdKTJIMHO0BPZCHr734jIyJzydiS9wPoWa
b1zFCcCMMi9yIsnSlR+2rHJgcreCTWvOW+MA0NIvWMbgEOVRyk07LuZ+q4TWVvGT
NaCTZCaBdS+RtRYGOAvbzC0HAgMBAAGjggEOMIIBCjALBgNVHQ8EBAMCBaAwCQYD
VR0TBAIwADARBglghkgBhvhCAQEEBAMCBkAwMwYJYIZIAYb4QgENBCYWJE9wZW5T
U0wgR2VuZXJhdGVkIFNlcnZlciBDZXJ0aWZpY2F0ZTAdBgNVHQ4EFgQU/BTR8EuN
AJDy9bhxnk6Xw5JUrQswdAYDVR0jBG0wa4AU9KfAzJFGr2TzkfIn+Miyb4qHMnOh
SKRGMEQxCzAJBgNVBAYTAkRFMQ8wDQYDVQQIDAZIZXNzZW4xFDASBgNVBAoMC3By
aXZhY3lpZGVhMQ4wDAYDVQQDDAVDQTAwMYIJAPvI66yDzRIHMBMGA1UdJQQMMAoG
CCsGAQUFBwMBMA0GCSqGSIb3DQEBBQUAA4IBAQCgRlHsBk2SYwtzg/e2NtvijAcv
2JLvcTAZMrGE861A7heXKQ3J31MZD9X7Qu6hHoxaNqPZDx+ON/OSwN9dyyMAKi5p
XNFxLTc+pcvPzribpEOeIXSvZmhJ0JJFHM/sU2Iofskx+L0FRtKQU9cL9M35PORb
kQe8b6jZ9D8Y6xWMWDw5wwPnZcr+9PXiHxN7Lvt6fsk9twW0Ld+C/tE/g4ahB4dc
8yyC+PjBur8V62hzOx8e0S/vDohhx40KXjXCXNcrUYUdrjgdXUAEOBmALRO6YEPK
Cyd8xlbMKFKv9I1Tpq9eJCB9Nd0iYvdZaYfArC1Ilmfa4FaT9uByxgHDfKjc
-----END CERTIFICATE-----
