Certificate:
    Data:
        Version: 3 (0x2)
        Serial Number: 268435667 (0x100000d3)
    Signature Algorithm: sha1WithRSAEncryption
        Issuer: C=DE, ST=Hessen, O=privacyidea, CN=CA001
        Validity
            Not Before: Nov 17 15:13:06 2016 GMT
            Not After : Nov 17 15:13:06 2017 GMT
        Subject: C=DE, ST=Hessen, O=privacyidea, CN=requester.localdomain
        Subject Public Key Info:
            Public Key Algorithm: rsaEncryption
                Public-Key: (2048 bit)
                Modulus:
                    00:cd:be:14:4f:fa:ce:01:3f:42:22:1b:1d:9c:af:
                    dd:92:d2:7f:db:6c:b7:3e:39:43:43:6b:13:03:f1:
                    05:f4:07:74:bc:76:69:28:0b:af:19:8e:d7:fc:e3:
                    cd:c6:58:f2:ca:7f:08:6d:53:fc:07:02:44:24:c6:
                    b4:34:4c:8c:04:fe:33:0e:40:e2:20:ba:02:73:5a:
                    f7:f5:4f:63:6e:cc:c6:b6:df:54:1d:37:39:7d:51:
                    36:26:5f:bd:dc:3f:a8:8b:6b:a2:ae:b6:9d:d6:21:
                    e7:df:41:b8:7a:28:2a:68:48:ca:a8:2d:ed:e1:e9:
                    46:5e:5a:72:6d:b4:84:38:87:91:fd:94:11:0b:28:
                    84:c6:c2:2f:2a:fb:01:f9:36:7a:09:75:d1:33:88:
                    3c:73:41:5b:c8:bf:94:89:70:a1:f0:c0:b9:2e:50:
                    53:1e:b1:17:64:69:f4:2d:81:e0:a9:0d:0e:32:e9:
                    ba:55:8a:85:f1:1b:6f:49:79:b4:7f:88:c3:0d:3e:
                    54:88:9b:3d:1f:38:8c:04:f3:ee:6a:63:2b:f5:c6:
                    db:b4:83:aa:c4:78:41:3a:7d:4b:e1:c8:3e:71:ca:
                    1b:61:59:ea:c6:c4:ca:32:5e:c9:e9:bf:12:29:e6:
                    c6:c3:63:fe:a0:55:da:7a:f1:60:98:4d:26:ed:fa:
                    70:2d
                Exponent: 65537 (0x10001)
        X509v3 extensions:
            X509v3 Key Usage: 
                Digital Signature, Key Encipherment
            X509v3 Basic Constraints: 
                CA:FALSE
            Netscape Cert Type: 
                SSL Server
            Netscape Comment: 
                OpenSSL Generated Server Certificate
            X509v3 Subject Key Identifier: 
                53:3F:ED:5D:09:07:B3:65:7B:AB:45:C9:24:5B:09:77:80:0A:96:ED
            X509v3 Authority Key Identifier: 
                keyid:F4:A7:C0:CC:91:46:AF:64:F3:91:F2:27:F8:C8:B2:6F:8A:87:32:73
                DirName:/C=DE/ST=Hessen/O=privacyidea/CN=CA001
                serial:FB:C8:EB:AC:83:CD:12:07

            X509v3 Extended Key Usage: 
                TLS Web Server Authentication
    Signature Algorithm: sha1WithRSAEncryption
         78:42:51:cf:57:7c:dd:06:3a:16:a9:7c:2e:ad:a8:8f:07:4b:
         2f:fb:70:b9:d6:0d:f8:7c:17:75:5d:a4:6d:81:57:55:bf:61:
         e7:e3:65:2f:31:89:90:f0:ae:bc:2c:23:1e:08:95:cc:ca:d1:
         dc:d8:c4:fe:2c:45:da:36:fe:48:87:13:fb:62:7d:c3:20:7f:
         89:70:12:e7:d9:06:11:f0:47:85:d7:4f:6f:d4:89:04:6c:f0:
         ea:20:7c:4e:38:3b:d0:96:ee:34:a9:fe:03:0a:9d:95:7f:eb:
         d2:3c:c0:cc:a2:44:90:8f:f3:81:f3:11:e2:94:a3:09:09:1f:
         4f:91:7a:23:20:cc:3b:29:5d:a1:5d:f5:5c:cb:71:2e:9f:20:
         09:7a:2f:a4:d0:e1:7b:35:c5:3a:ef:09:89:ac:3e:69:4b:1a:
         5c:68:f4:47:c4:e7:80:1f:93:06:bc:7e:ca:3f:f0:6e:32:78:
         58:5f:2c:d0:89:60:72:0c:d9:df:8c:43:81:97:27:ba:f7:80:
         8b:89:a1:e1:01:76:d0:9c:b2:10:1d:da:da:bd:00:02:2e:57:
         8c:b0:3c:ad:5e:a6:c0:17:d3:f0:f6:74:09:59:f3:ff:3c:40:
         6e:bd:57:4c:68:88:13:f1:99:50:0b:08:c3:d2:4a:36:e2:7c:
         79:fa:f3:fd
-----BEGIN CERTIFICATE-----
MIIEJjCCAw6gAwIBAgIEEAAA0zANBgkqhkiG9w0BAQUFADBEMQswCQYDVQQGEwJE
RTEPMA0GA1UECAwGSGVzc2VuMRQwEgYDVQQKDAtwcml2YWN5aWRlYTEOMAwGA1UE
AwwFQ0EwMDEwHhcNMTYxMTE3MTUxMzA2WhcNMTcxMTE3MTUxMzA2WjBUMQswCQYD
VQQGEwJERTEPMA0GA1UECAwGSGVzc2VuMRQwEgYDVQQKDAtwcml2YWN5aWRlYTEe
MBwGA1UEAwwVcmVxdWVzdGVyLmxvY2FsZG9tYWluMIIBIjANBgkqhkiG9w0BAQEF
AAOCAQ8AMIIBCgKCAQEAzb4UT/rOAT9CIhsdnK/dktJ/22y3PjlDQ2sTA/EF9Ad0
vHZpKAuvGY7X/OPNxljyyn8IbVP8BwJEJMa0NEyMBP4zDkDiILoCc1r39U9jbszG
tt9UHTc5fVE2Jl+93D+oi2uirrad1iHn30G4eigqaEjKqC3t4elGXlpybbSEOIeR
/ZQRCyiExsIvKvsB+TZ6CXXRM4g8c0FbyL+UiXCh8MC5LlBTHrEXZGn0LYHgqQ0O
Mum6VYqF8RtvSXm0f4jDDT5UiJs9HziMBPPuamMr9cbbtIOqxHhBOn1L4cg+ccob
YVnqxsTKMl7J6b8SKebGw2P+oFXaevFgmE0m7fpwLQIDAQABo4IBDjCCAQowCwYD
VR0PBAQDAgWgMAkGA1UdEwQCMAAwEQYJYIZIAYb4QgEBBAQDAgZAMDMGCWCGSAGG
+EIBDQQmFiRPcGVuU1NMIEdlbmVyYXRlZCBTZXJ2ZXIgQ2VydGlmaWNhdGUwHQYD
VR0OBBYEFFM/7V0JB7Nle6tFySRbCXeACpbtMHQGA1UdIwRtMGuAFPSnwMyRRq9k
85HyJ/jIsm+KhzJzoUikRjBEMQswCQYDVQQGEwJERTEPMA0GA1UECAwGSGVzc2Vu
MRQwEgYDVQQKDAtwcml2YWN5aWRlYTEOMAwGA1UEAwwFQ0EwMDGCCQD7yOusg80S
BzATBgNVHSUEDDAKBggrBgEFBQcDATANBgkqhkiG9w0BAQUFAAOCAQEAeEJRz1d8
3QY6Fql8Lq2ojwdLL/twudYN+HwXdV2kbYFXVb9h5+NlLzGJkPCuvCwjHgiVzMrR
3NjE/ixF2jb+SIcT+2J9wyB/iXAS59kGEfBHhddPb9SJBGzw6iB8Tjg70JbuNKn+
AwqdlX/r0jzAzKJEkI/zgfMR4pSjCQkfT5F6IyDMOyldoV31XMtxLp8gCXovpNDh
ezXFOu8Jiaw+aUsaXGj0R8TngB+TBrx+yj/wbjJ4WF8s0IlgcgzZ34xDgZcnuveA
i4mh4QF20JyyEB3a2r0AAi5XjLA8rV6mwBfT8PZ0CVnz/zxAbr1XTGiIE/GZUAsI
w9JKNuJ8efrz/Q==
-----END CERTIFICATE-----
