Certificate:
    Data:
        Version: 3 (0x2)
        Serial Number: 268435663 (0x100000cf)
    Signature Algorithm: sha1WithRSAEncryption
        Issuer: C=DE, ST=Hessen, O=privacyidea, CN=CA001
        Validity
            Not Before: Nov 21 15:36:33 2016 GMT
            Not After : Nov 21 15:36:33 2017 GMT
        Subject: CN=selfservice,CN=user,O=realm1/emailAddress=meine
        Subject Public Key Info:
            Public Key Algorithm: rsaEncryption
                Public-Key: (2048 bit)
                Modulus:
                    00:cf:3c:d4:33:0e:12:c4:e6:da:cd:b6:56:a1:1c:
                    26:bb:26:1c:8a:4a:73:a8:58:8a:b6:1e:b3:8b:99:
                    d2:1d:07:c2:92:89:79:c0:69:d8:c8:df:28:61:98:
                    1e:b3:fe:ae:2b:bd:78:a9:f7:6e:47:dc:a3:a0:16:
                    8c:85:02:c1:4e:92:fd:72:6e:f0:c8:03:29:9b:b8:
                    00:6e:c0:83:95:c8:34:20:36:9c:b3:e5:e4:e6:76:
                    73:a3:1a:ad:40:96:e0:53:54:00:ec:76:79:9a:c6:
                    0d:7e:b6:bd:29:ec:83:f3:cb:89:a4:cb:6c:00:ba:
                    0c:c5:78:0f:ff:69:b8:94:f4:04:70:43:3f:d8:9e:
                    d7:a7:fb:5d:ce:75:8e:da:e7:c4:07:b1:9d:de:6f:
                    88:4b:b6:4d:9a:cf:f9:bc:fa:9f:cd:32:6d:f6:3a:
                    0b:0d:23:42:78:ec:97:42:bf:0e:4d:60:56:e1:d3:
                    02:f2:19:cb:84:57:90:e5:70:a1:a2:83:35:86:e2:
                    da:86:9f:f9:8a:c4:79:b3:52:28:da:cb:bb:34:ca:
                    d3:da:91:4a:cf:8d:76:a2:b2:6b:9b:f9:96:fd:09:
                    2a:da:11:23:4d:f0:cb:d6:b2:b1:0e:12:6c:9a:19:
                    65:98:87:ca:e4:ee:24:ce:44:ac:90:8f:9d:1b:c5:
                    2a:9d
                Exponent: 65537 (0x10001)
        X509v3 extensions:
            X509v3 Key Usage: 
                Digital Signature, Key Encipherment
            X509v3 Basic Constraints: 
                CA:FALSE
            Netscape Cert Type: 
                SSL Server
            Netscape Comment: 
                OpenSSL Generated Server Certificate
            X509v3 Subject Key Identifier: 
                4D:07:90:AD:FF:1D:0D:E7:1A:DD:D6:2E:FA:BA:34:CB:AA:1F:24:C6
            X509v3 Authority Key Identifier: 
                keyid:F4:A7:C0:CC:91:46:AF:64:F3:91:F2:27:F8:C8:B2:6F:8A:87:32:73
                DirName:/C=DE/ST=Hessen/O=privacyidea/CN=CA001
                serial:FB:C8:EB:AC:83:CD:12:07

            X509v3 Extended Key Usage: 
                TLS Web Server Authentication
    Signature Algorithm: sha1WithRSAEncryption
         49:89:0d:9e:c9:d8:d8:37:74:f9:ac:68:62:9a:cb:4b:aa:5f:
         3f:c6:2a:d5:64:1c:32:a0:05:20:3b:f9:e6:ce:83:38:d6:20:
         7c:04:14:15:23:b1:54:96:e4:a1:37:45:f2:c1:d4:ca:57:49:
         78:d8:1a:8d:e0:e6:bd:94:4d:e0:5c:cf:34:d8:73:15:4b:13:
         22:98:6c:46:be:75:e5:32:d9:bb:ce:d9:a2:ba:50:fc:5f:62:
         15:8a:7b:d8:3d:15:e2:a7:d6:37:20:27:34:d7:97:79:7d:f9:
         28:0c:84:24:be:a8:58:92:52:4e:d6:4f:fa:3e:89:ed:77:61:
         20:fd:17:03:dc:c7:cb:13:53:f9:aa:46:c8:6f:33:87:33:f1:
         70:99:e1:88:3d:45:a9:76:46:8f:b5:24:7a:63:b0:af:2e:a0:
         12:1d:25:e1:90:f7:ed:57:27:23:a2:e7:42:77:7a:e1:42:97:
         24:84:fa:6d:c3:b9:50:c2:80:64:73:56:6b:d1:23:69:58:e1:
         3b:29:fd:79:44:0f:13:31:e5:63:69:4e:82:08:1f:fe:26:d2:
         20:32:a1:de:b9:52:94:7d:34:2f:15:12:88:6e:f8:9c:73:40:
         6c:ae:a0:00:15:be:fa:f8:44:f6:32:d4:ec:09:ef:f2:cd:25:
         22:2a:68:5a
-----BEGIN CERTIFICATE-----
MIIEDzCCAvegAwIBAgIEEAAAzzANBgkqhkiG9w0BAQUFADBEMQswCQYDVQQGEwJE
RTEPMA0GA1UECAwGSGVzc2VuMRQwEgYDVQQKDAtwcml2YWN5aWRlYTEOMAwGA1UE
AwwFQ0EwMDEwHhcNMTYxMTIxMTUzNjMzWhcNMTcxMTIxMTUzNjMzWjA9MSUwIwYD
VQQDDBxzZWxmc2VydmljZSxDTj11c2VyLE89cmVhbG0xMRQwEgYJKoZIhvcNAQkB
FgVtZWluZTCCASIwDQYJKoZIhvcNAQEBBQADggEPADCCAQoCggEBAM881DMOEsTm
2s22VqEcJrsmHIpKc6hYirYes4uZ0h0HwpKJecBp2MjfKGGYHrP+riu9eKn3bkfc
o6AWjIUCwU6S/XJu8MgDKZu4AG7Ag5XINCA2nLPl5OZ2c6MarUCW4FNUAOx2eZrG
DX62vSnsg/PLiaTLbAC6DMV4D/9puJT0BHBDP9ie16f7Xc51jtrnxAexnd5viEu2
TZrP+bz6n80ybfY6Cw0jQnjsl0K/Dk1gVuHTAvIZy4RXkOVwoaKDNYbi2oaf+YrE
ebNSKNrLuzTK09qRSs+NdqKya5v5lv0JKtoRI03wy9aysQ4SbJoZZZiHyuTuJM5E
rJCPnRvFKp0CAwEAAaOCAQ4wggEKMAsGA1UdDwQEAwIFoDAJBgNVHRMEAjAAMBEG
CWCGSAGG+EIBAQQEAwIGQDAzBglghkgBhvhCAQ0EJhYkT3BlblNTTCBHZW5lcmF0
ZWQgU2VydmVyIENlcnRpZmljYXRlMB0GA1UdDgQWBBRNB5Ct/x0N5xrd1i76ujTL
qh8kxjB0BgNVHSMEbTBrgBT0p8DMkUavZPOR8if4yLJviocyc6FIpEYwRDELMAkG
A1UEBhMCREUxDzANBgNVBAgMBkhlc3NlbjEUMBIGA1UECgwLcHJpdmFjeWlkZWEx
DjAMBgNVBAMMBUNBMDAxggkA+8jrrIPNEgcwEwYDVR0lBAwwCgYIKwYBBQUHAwEw
DQYJKoZIhvcNAQEFBQADggEBAEmJDZ7J2Ng3dPmsaGKay0uqXz/GKtVkHDKgBSA7
+ebOgzjWIHwEFBUjsVSW5KE3RfLB1MpXSXjYGo3g5r2UTeBczzTYcxVLEyKYbEa+
deUy2bvO2aK6UPxfYhWKe9g9FeKn1jcgJzTXl3l9+SgMhCS+qFiSUk7WT/o+ie13
YSD9FwPcx8sTU/mqRshvM4cz8XCZ4Yg9Ral2Ro+1JHpjsK8uoBIdJeGQ9+1XJyOi
50J3euFClySE+m3DuVDCgGRzVmvRI2lY4Tsp/XlEDxMx5WNpToIIH/4m0iAyod65
UpR9NC8VEohu+JxzQGyuoAAVvvr4RPYy1OwJ7/LNJSIqaFo=
-----END CERTIFICATE-----
