Certificate:
    Data:
        Version: 3 (0x2)
        Serial Number: 268435664 (0x100000d0)
    Signature Algorithm: sha1WithRSAEncryption
        Issuer: C=DE, ST=Hessen, O=privacyidea, CN=CA001
        Validity
            Not Before: Nov 17 15:09:04 2016 GMT
            Not After : Nov 17 15:09:04 2017 GMT
        Subject: C=DE, ST=Hessen, O=privacyidea, CN=requester.localdomain
        Subject Public Key Info:
            Public Key Algorithm: rsaEncryption
                Public-Key: (2048 bit)
                Modulus:
                    00:cd:be:14:4f:fa:ce:01:3f:42:22:1b:1d:9c:af:
                    dd:92:d2:7f:db:6c:b7:3e:39:43:43:6b:13:03:f1:
                    05:f4:07:74:bc:76:69:28:0b:af:19:8e:d7:fc:e3:
                    cd:c6:58:f2:ca:7f:08:6d:53:fc:07:02:44:24:c6:
                    b4:34:4c:8c:04:fe:33:0e:40:e2:20:ba:02:73:5a:
                    f7:f5:4f:63:6e:cc:c6:b6:df:54:1d:37:39:7d:51:
                    36:26:5f:bd:dc:3f:a8:8b:6b:a2:ae:b6:9d:d6:21:
                    e7:df:41:b8:7a:28:2a:68:48:ca:a8:2d:ed:e1:e9:
                    46:5e:5a:72:6d:b4:84:38:87:91:fd:94:11:0b:28:
                    84:c6:c2:2f:2a:fb:01:f9:36:7a:09:75:d1:33:88:
                    3c:73:41:5b:c8:bf:94:89:70:a1:f0:c0:b9:2e:50:
                    53:1e:b1:17:64:69:f4:2d:81:e0:a9:0d:0e:32:e9:
                    ba:55:8a:85:f1:1b:6f:49:79:b4:7f:88:c3:0d:3e:
                    54:88:9b:3d:1f:38:8c:04:f3:ee:6a:63:2b:f5:c6:
                    db:b4:83:aa:c4:78:41:3a:7d:4b:e1:c8:3e:71:ca:
                    1b:61:59:ea:c6:c4:ca:32:5e:c9:e9:bf:12:29:e6:
                    c6:c3:63:fe:a0:55:da:7a:f1:60:98:4d:26:ed:fa:
                    70:2d
                Exponent: 65537 (0x10001)
        X509v3 extensions:
            X509v3 Key Usage: 
                Digital Signature, Key Encipherment
            X509v3 Basic Constraints: 
                CA:FALSE
            Netscape Cert Type: 
                SSL Server
            Netscape Comment: 
                OpenSSL Generated Server Certificate
            X509v3 Subject Key Identifier: 
                53:3F:ED:5D:09:07:B3:65:7B:AB:45:C9:24:5B:09:77:80:0A:96:ED
            X509v3 Authority Key Identifier: 
                keyid:F4:A7:C0:CC:91:46:AF:64:F3:91:F2:27:F8:C8:B2:6F:8A:87:32:73
                DirName:/C=DE/ST=Hessen/O=privacyidea/CN=CA001
                serial:FB:C8:EB:AC:83:CD:12:07

            X509v3 Extended Key Usage: 
                TLS Web Server Authentication
    Signature Algorithm: sha1WithRSAEncryption
         26:1d:ba:87:45:36:40:ae:fc:4a:1e:ab:b2:ea:ea:9b:46:2f:
         58:bd:f4:ef:1b:e6:02:80:bb:56:23:b7:84:15:31:c7:1d:32:
         8e:8e:24:41:60:60:6d:de:75:22:1a:4a:9e:3d:d3:ea:0d:c5:
         2c:95:fb:e4:82:b8:2f:0a:cf:94:b8:61:32:3d:7e:ab:68:7a:
         0a:27:c5:54:d8:8b:fc:95:87:d8:39:80:b0:ac:38:e6:2b:da:
         db:57:01:b1:87:bd:24:fa:6f:5f:4a:12:d2:97:34:99:f9:af:
         4e:82:4f:12:dc:a8:40:6a:ea:01:ef:0a:29:f3:cb:75:8f:dd:
         b5:1d:8c:fe:83:19:bc:0a:36:e8:f7:55:24:69:de:55:3c:00:
         2d:cb:8f:62:68:a3:6e:e2:17:d0:2b:6d:e0:0b:f9:31:3e:c7:
         d4:b4:bf:19:16:6d:64:f9:9c:71:85:02:c9:ad:a1:b6:05:a2:
         69:86:96:2a:fd:fe:12:c8:23:04:11:0e:79:63:74:06:19:24:
         6e:59:cb:5d:44:77:ca:d5:1c:5c:73:59:22:04:dc:80:93:2c:
         cb:84:b4:3a:d8:69:13:79:59:1c:86:00:0d:85:85:66:38:51:
         b2:e7:55:81:45:00:84:2a:0d:8d:65:00:0d:f4:76:9a:4c:dd:
         2c:8d:ae:c1
-----BEGIN CERTIFICATE-----
MIIEJjCCAw6gAwIBAgIEEAAA0DANBgkqhkiG9w0BAQUFADBEMQswCQYDVQQGEwJE
RTEPMA0GA1UECAwGSGVzc2VuMRQwEgYDVQQKDAtwcml2YWN5aWRlYTEOMAwGA1UE
AwwFQ0EwMDEwHhcNMTYxMTE3MTUwOTA0WhcNMTcxMTE3MTUwOTA0WjBUMQswCQYD
VQQGEwJERTEPMA0GA1UECAwGSGVzc2VuMRQwEgYDVQQKDAtwcml2YWN5aWRlYTEe
MBwGA1UEAwwVcmVxdWVzdGVyLmxvY2FsZG9tYWluMIIBIjANBgkqhkiG9w0BAQEF
AAOCAQ8AMIIBCgKCAQEAzb4UT/rOAT9CIhsdnK/dktJ/22y3PjlDQ2sTA/EF9Ad0
vHZpKAuvGY7X/OPNxljyyn8IbVP8BwJEJMa0NEyMBP4zDkDiILoCc1r39U9jbszG
tt9UHTc5fVE2Jl+93D+oi2uirrad1iHn30G4eigqaEjKqC3t4elGXlpybbSEOIeR
/ZQRCyiExsIvKvsB+TZ6CXXRM4g8c0FbyL+UiXCh8MC5LlBTHrEXZGn0LYHgqQ0O
Mum6VYqF8RtvSXm0f4jDDT5UiJs9HziMBPPuamMr9cbbtIOqxHhBOn1L4cg+ccob
YVnqxsTKMl7J6b8SKebGw2P+oFXaevFgmE0m7fpwLQIDAQABo4IBDjCCAQowCwYD
VR0PBAQDAgWgMAkGA1UdEwQCMAAwEQYJYIZIAYb4QgEBBAQDAgZAMDMGCWCGSAGG
+EIBDQQmFiRPcGVuU1NMIEdlbmVyYXRlZCBTZXJ2ZXIgQ2VydGlmaWNhdGUwHQYD
VR0OBBYEFFM/7V0JB7Nle6tFySRbCXeACpbtMHQGA1UdIwRtMGuAFPSnwMyRRq9k
85HyJ/jIsm+KhzJzoUikRjBEMQswCQYDVQQGEwJERTEPMA0GA1UECAwGSGVzc2Vu
MRQwEgYDVQQKDAtwcml2YWN5aWRlYTEOMAwGA1UEAwwFQ0EwMDGCCQD7yOusg80S
BzATBgNVHSUEDDAKBggrBgEFBQcDATANBgkqhkiG9w0BAQUFAAOCAQEAJh26h0U2
QK78Sh6rsurqm0YvWL307xvmAoC7ViO3hBUxxx0yjo4kQWBgbd51IhpKnj3T6g3F
LJX75IK4LwrPlLhhMj1+q2h6CifFVNiL/JWH2DmAsKw45iva21cBsYe9JPpvX0oS
0pc0mfmvToJPEtyoQGrqAe8KKfPLdY/dtR2M/oMZvAo26PdVJGneVTwALcuPYmij
buIX0Ctt4Av5MT7H1LS/GRZtZPmccYUCya2htgWiaYaWKv3+EsgjBBEOeWN0Bhkk
blnLXUR3ytUcXHNZIgTcgJMsy4S0OthpE3lZHIYADYWFZjhRsudVgUUAhCoNjWUA
DfR2mkzdLI2uwQ==
-----END CERTIFICATE-----
