Certificate:
    Data:
        Version: 3 (0x2)
        Serial Number: 268435672 (0x100000d8)
    Signature Algorithm: sha1WithRSAEncryption
        Issuer: C=DE, ST=Hessen, O=privacyidea, CN=CA001
        Validity
            Not Before: Sep 30 15:39:19 2016 GMT
            Not After : Sep 30 15:39:19 2017 GMT
        Subject: C=DE, ST=Hessen, O=privacyidea, CN=requester.localdomain
        Subject Public Key Info:
            Public Key Algorithm: rsaEncryption
                Public-Key: (2048 bit)
                Modulus:
                    00:cd:be:14:4f:fa:ce:01:3f:42:22:1b:1d:9c:af:
                    dd:92:d2:7f:db:6c:b7:3e:39:43:43:6b:13:03:f1:
                    05:f4:07:74:bc:76:69:28:0b:af:19:8e:d7:fc:e3:
                    cd:c6:58:f2:ca:7f:08:6d:53:fc:07:02:44:24:c6:
                    b4:34:4c:8c:04:fe:33:0e:40:e2:20:ba:02:73:5a:
                    f7:f5:4f:63:6e:cc:c6:b6:df:54:1d:37:39:7d:51:
                    36:26:5f:bd:dc:3f:a8:8b:6b:a2:ae:b6:9d:d6:21:
                    e7:df:41:b8:7a:28:2a:68:48:ca:a8:2d:ed:e1:e9:
                    46:5e:5a:72:6d:b4:84:38:87:91:fd:94:11:0b:28:
                    84:c6:c2:2f:2a:fb:01:f9:36:7a:09:75:d1:33:88:
                    3c:73:41:5b:c8:bf:94:89:70:a1:f0:c0:b9:2e:50:
                    53:1e:b1:17:64:69:f4:2d:81:e0:a9:0d:0e:32:e9:
                    ba:55:8a:85:f1:1b:6f:49:79:b4:7f:88:c3:0d:3e:
                    54:88:9b:3d:1f:38:8c:04:f3:ee:6a:63:2b:f5:c6:
                    db:b4:83:aa:c4:78:41:3a:7d:4b:e1:c8:3e:71:ca:
                    1b:61:59:ea:c6:c4:ca:32:5e:c9:e9:bf:12:29:e6:
                    c6:c3:63:fe:a0:55:da:7a:f1:60:98:4d:26:ed:fa:
                    70:2d
                Exponent: 65537 (0x10001)
        X509v3 extensions:
            X509v3 Key Usage: 
                Digital Signature, Key Encipherment
            X509v3 Basic Constraints: 
                CA:FALSE
            Netscape Cert Type: 
                SSL Server
            Netscape Comment: 
                OpenSSL Generated Server Certificate
            X509v3 Subject Key Identifier: 
                53:3F:ED:5D:09:07:B3:65:7B:AB:45:C9:24:5B:09:77:80:0A:96:ED
            X509v3 Authority Key Identifier: 
                keyid:F4:A7:C0:CC:91:46:AF:64:F3:91:F2:27:F8:C8:B2:6F:8A:87:32:73
                DirName:/C=DE/ST=Hessen/O=privacyidea/CN=CA001
                serial:FB:C8:EB:AC:83:CD:12:07

            X509v3 Extended Key Usage: 
                TLS Web Server Authentication
    Signature Algorithm: sha1WithRSAEncryption
         38:2e:dc:a3:5f:4c:14:50:13:a4:d5:09:e4:53:dd:2c:18:00:
         83:8d:53:de:2b:78:b7:f3:ad:4f:c6:64:ed:a6:bd:9e:61:39:
         df:f0:03:48:28:b4:f6:9f:81:ac:84:e8:92:c7:81:aa:2c:5c:
         78:fa:f5:79:61:00:26:d6:eb:c2:56:50:88:c1:01:a8:53:91:
         a6:be:8a:ca:4e:91:49:46:bc:43:c1:22:10:fb:68:22:e5:79:
         59:6c:41:5e:fc:85:88:8c:8d:49:ba:c1:b9:0f:a1:89:04:cb:
         57:ab:8e:c2:4e:a2:c7:42:bc:df:a1:ee:2e:4f:df:2b:97:ae:
         14:db:16:a3:e0:64:0e:8a:ab:9c:9e:5e:4a:b9:37:ab:6c:e9:
         2a:4e:ca:dd:a5:54:07:96:5b:3e:74:91:9d:a2:b6:5e:6f:4b:
         9a:4d:ad:b7:fa:2c:e6:61:e7:d9:eb:fa:be:9f:da:10:f9:4e:
         0e:4f:78:1c:46:87:3b:bc:96:c3:42:01:34:94:3a:25:83:ab:
         b1:ba:fc:9f:8b:12:e2:d0:26:ab:70:d9:de:f9:76:cd:a2:46:
         b0:53:fe:47:65:dd:cd:5a:3a:2b:dd:d7:ec:ae:78:6c:94:c5:
         aa:81:fb:11:88:98:7f:38:33:e1:75:1c:66:09:20:9f:73:9c:
         88:6b:0d:21
-----BEGIN CERTIFICATE-----
MIIEJjCCAw6gAwIBAgIEEAAA2DANBgkqhkiG9w0BAQUFADBEMQswCQYDVQQGEwJE
RTEPMA0GA1UECAwGSGVzc2VuMRQwEgYDVQQKDAtwcml2YWN5aWRlYTEOMAwGA1UE
AwwFQ0EwMDEwHhcNMTYwOTMwMTUzOTE5WhcNMTcwOTMwMTUzOTE5WjBUMQswCQYD
VQQGEwJERTEPMA0GA1UECAwGSGVzc2VuMRQwEgYDVQQKDAtwcml2YWN5aWRlYTEe
MBwGA1UEAwwVcmVxdWVzdGVyLmxvY2FsZG9tYWluMIIBIjANBgkqhkiG9w0BAQEF
AAOCAQ8AMIIBCgKCAQEAzb4UT/rOAT9CIhsdnK/dktJ/22y3PjlDQ2sTA/EF9Ad0
vHZpKAuvGY7X/OPNxljyyn8IbVP8BwJEJMa0NEyMBP4zDkDiILoCc1r39U9jbszG
tt9UHTc5fVE2Jl+93D+oi2uirrad1iHn30G4eigqaEjKqC3t4elGXlpybbSEOIeR
/ZQRCyiExsIvKvsB+TZ6CXXRM4g8c0FbyL+UiXCh8MC5LlBTHrEXZGn0LYHgqQ0O
Mum6VYqF8RtvSXm0f4jDDT5UiJs9HziMBPPuamMr9cbbtIOqxHhBOn1L4cg+ccob
YVnqxsTKMl7J6b8SKebGw2P+oFXaevFgmE0m7fpwLQIDAQABo4IBDjCCAQowCwYD
VR0PBAQDAgWgMAkGA1UdEwQCMAAwEQYJYIZIAYb4QgEBBAQDAgZAMDMGCWCGSAGG
+EIBDQQmFiRPcGVuU1NMIEdlbmVyYXRlZCBTZXJ2ZXIgQ2VydGlmaWNhdGUwHQYD
VR0OBBYEFFM/7V0JB7Nle6tFySRbCXeACpbtMHQGA1UdIwRtMGuAFPSnwMyRRq9k
85HyJ/jIsm+KhzJzoUikRjBEMQswCQYDVQQGEwJERTEPMA0GA1UECAwGSGVzc2Vu
MRQwEgYDVQQKDAtwcml2YWN5aWRlYTEOMAwGA1UEAwwFQ0EwMDGCCQD7yOusg80S
BzATBgNVHSUEDDAKBggrBgEFBQcDATANBgkqhkiG9w0BAQUFAAOCAQEAOC7co19M
FFATpNUJ5FPdLBgAg41T3it4t/OtT8Zk7aa9nmE53/ADSCi09p+BrITokseBqixc
ePr1eWEAJtbrwlZQiMEBqFORpr6Kyk6RSUa8Q8EiEPtoIuV5WWxBXvyFiIyNSbrB
uQ+hiQTLV6uOwk6ix0K836HuLk/fK5euFNsWo+BkDoqrnJ5eSrk3q2zpKk7K3aVU
B5ZbPnSRnaK2Xm9Lmk2tt/os5mHn2ev6vp/aEPlODk94HEaHO7yWw0IBNJQ6JYOr
sbr8n4sS4tAmq3DZ3vl2zaJGsFP+R2XdzVo6K93X7K54bJTFqoH7EYiYfzgz4XUc
Zgkgn3OciGsNIQ==
-----END CERTIFICATE-----
