Certificate:
    Data:
        Version: 3 (0x2)
        Serial Number: 268435674 (0x100000da)
    Signature Algorithm: sha1WithRSAEncryption
        Issuer: C=DE, ST=Hessen, O=privacyidea, CN=CA001
        Validity
            Not Before: Sep 30 16:34:32 2016 GMT
            Not After : Sep 30 16:34:32 2017 GMT
        Subject: C=DE, ST=Hessen, O=privacyidea, CN=requester.localdomain
        Subject Public Key Info:
            Public Key Algorithm: rsaEncryption
                Public-Key: (2048 bit)
                Modulus:
                    00:cd:be:14:4f:fa:ce:01:3f:42:22:1b:1d:9c:af:
                    dd:92:d2:7f:db:6c:b7:3e:39:43:43:6b:13:03:f1:
                    05:f4:07:74:bc:76:69:28:0b:af:19:8e:d7:fc:e3:
                    cd:c6:58:f2:ca:7f:08:6d:53:fc:07:02:44:24:c6:
                    b4:34:4c:8c:04:fe:33:0e:40:e2:20:ba:02:73:5a:
                    f7:f5:4f:63:6e:cc:c6:b6:df:54:1d:37:39:7d:51:
                    36:26:5f:bd:dc:3f:a8:8b:6b:a2:ae:b6:9d:d6:21:
                    e7:df:41:b8:7a:28:2a:68:48:ca:a8:2d:ed:e1:e9:
                    46:5e:5a:72:6d:b4:84:38:87:91:fd:94:11:0b:28:
                    84:c6:c2:2f:2a:fb:01:f9:36:7a:09:75:d1:33:88:
                    3c:73:41:5b:c8:bf:94:89:70:a1:f0:c0:b9:2e:50:
                    53:1e:b1:17:64:69:f4:2d:81:e0:a9:0d:0e:32:e9:
                    ba:55:8a:85:f1:1b:6f:49:79:b4:7f:88:c3:0d:3e:
                    54:88:9b:3d:1f:38:8c:04:f3:ee:6a:63:2b:f5:c6:
                    db:b4:83:aa:c4:78:41:3a:7d:4b:e1:c8:3e:71:ca:
                    1b:61:59:ea:c6:c4:ca:32:5e:c9:e9:bf:12:29:e6:
                    c6:c3:63:fe:a0:55:da:7a:f1:60:98:4d:26:ed:fa:
                    70:2d
                Exponent: 65537 (0x10001)
        X509v3 extensions:
            X509v3 Key Usage: 
                Digital Signature, Key Encipherment
            X509v3 Basic Constraints: 
                CA:FALSE
            Netscape Cert Type: 
                SSL Server
            Netscape Comment: 
                OpenSSL Generated Server Certificate
            X509v3 Subject Key Identifier: 
                53:3F:ED:5D:09:07:B3:65:7B:AB:45:C9:24:5B:09:77:80:0A:96:ED
            X509v3 Authority Key Identifier: 
                keyid:F4:A7:C0:CC:91:46:AF:64:F3:91:F2:27:F8:C8:B2:6F:8A:87:32:73
                DirName:/C=DE/ST=Hessen/O=privacyidea/CN=CA001
                serial:FB:C8:EB:AC:83:CD:12:07

            X509v3 Extended Key Usage: 
                TLS Web Server Authentication
    Signature Algorithm: sha1WithRSAEncryption
         b3:9d:2f:e0:06:44:71:b1:b8:8a:ca:9c:dd:b8:a0:c9:d7:8f:
         28:75:f0:27:b1:5b:69:77:21:56:c6:5a:c3:57:9f:78:f9:6c:
         79:0f:fe:4e:bb:53:dd:4f:00:b9:28:9c:ce:a5:c8:3c:2b:7d:
         da:56:40:37:8e:09:1c:86:f4:91:c1:d5:60:0c:9b:b1:0e:1c:
         0c:d0:a6:35:ef:41:18:c9:f1:c1:57:ca:ed:dc:7d:b5:9a:ee:
         4b:fc:be:53:86:75:57:b8:5e:32:86:f9:a2:14:86:4f:df:9c:
         34:5f:6a:c4:ce:09:d8:ec:69:1f:27:69:4e:c2:6f:0e:af:d3:
         9e:7a:07:3b:9e:b0:fe:46:c3:5d:64:d4:af:49:f3:7d:50:8e:
         94:38:fd:e1:59:32:63:96:0b:82:bb:ca:18:ff:69:04:80:68:
         0b:13:dc:40:d3:a6:19:66:4a:74:0a:78:b4:45:c2:14:ab:9e:
         12:7e:51:57:2e:b6:56:1c:3a:16:b4:68:e4:7a:8e:a0:82:5f:
         4e:32:5b:05:ba:68:a1:f1:71:3a:43:cf:59:d9:0d:9f:35:ca:
         0a:42:e5:40:13:b9:2b:e3:ed:9d:58:c5:bc:7d:9c:3c:df:ff:
         23:fb:90:3f:69:56:6b:57:9c:52:88:e0:a7:29:43:c2:98:f7:
         0e:d2:1d:a2
-----BEGIN CERTIFICATE-----
MIIEJjCCAw6gAwIBAgIEEAAA2jANBgkqhkiG9w0BAQUFADBEMQswCQYDVQQGEwJE
RTEPMA0GA1UECAwGSGVzc2VuMRQwEgYDVQQKDAtwcml2YWN5aWRlYTEOMAwGA1UE
AwwFQ0EwMDEwHhcNMTYwOTMwMTYzNDMyWhcNMTcwOTMwMTYzNDMyWjBUMQswCQYD
VQQGEwJERTEPMA0GA1UECAwGSGVzc2VuMRQwEgYDVQQKDAtwcml2YWN5aWRlYTEe
MBwGA1UEAwwVcmVxdWVzdGVyLmxvY2FsZG9tYWluMIIBIjANBgkqhkiG9w0BAQEF
AAOCAQ8AMIIBCgKCAQEAzb4UT/rOAT9CIhsdnK/dktJ/22y3PjlDQ2sTA/EF9Ad0
vHZpKAuvGY7X/OPNxljyyn8IbVP8BwJEJMa0NEyMBP4zDkDiILoCc1r39U9jbszG
tt9UHTc5fVE2Jl+93D+oi2uirrad1iHn30G4eigqaEjKqC3t4elGXlpybbSEOIeR
/ZQRCyiExsIvKvsB+TZ6CXXRM4g8c0FbyL+UiXCh8MC5LlBTHrEXZGn0LYHgqQ0O
Mum6VYqF8RtvSXm0f4jDDT5UiJs9HziMBPPuamMr9cbbtIOqxHhBOn1L4cg+ccob
YVnqxsTKMl7J6b8SKebGw2P+oFXaevFgmE0m7fpwLQIDAQABo4IBDjCCAQowCwYD
VR0PBAQDAgWgMAkGA1UdEwQCMAAwEQYJYIZIAYb4QgEBBAQDAgZAMDMGCWCGSAGG
+EIBDQQmFiRPcGVuU1NMIEdlbmVyYXRlZCBTZXJ2ZXIgQ2VydGlmaWNhdGUwHQYD
VR0OBBYEFFM/7V0JB7Nle6tFySRbCXeACpbtMHQGA1UdIwRtMGuAFPSnwMyRRq9k
85HyJ/jIsm+KhzJzoUikRjBEMQswCQYDVQQGEwJERTEPMA0GA1UECAwGSGVzc2Vu
MRQwEgYDVQQKDAtwcml2YWN5aWRlYTEOMAwGA1UEAwwFQ0EwMDGCCQD7yOusg80S
BzATBgNVHSUEDDAKBggrBgEFBQcDATANBgkqhkiG9w0BAQUFAAOCAQEAs50v4AZE
cbG4isqc3bigydePKHXwJ7FbaXchVsZaw1efePlseQ/+TrtT3U8AuSiczqXIPCt9
2lZAN44JHIb0kcHVYAybsQ4cDNCmNe9BGMnxwVfK7dx9tZruS/y+U4Z1V7heMob5
ohSGT9+cNF9qxM4J2OxpHydpTsJvDq/TnnoHO56w/kbDXWTUr0nzfVCOlDj94Vky
Y5YLgrvKGP9pBIBoCxPcQNOmGWZKdAp4tEXCFKueEn5RVy62Vhw6FrRo5HqOoIJf
TjJbBbpoofFxOkPPWdkNnzXKCkLlQBO5K+PtnVjFvH2cPN//I/uQP2lWa1ecUojg
pylDwpj3DtIdog==
-----END CERTIFICATE-----
