Certificate:
    Data:
        Version: 3 (0x2)
        Serial Number: 268435669 (0x100000d5)
    Signature Algorithm: sha1WithRSAEncryption
        Issuer: C=DE, ST=Hessen, O=privacyidea, CN=CA001
        Validity
            Not Before: Nov 17 15:22:03 2016 GMT
            Not After : Nov 17 15:22:03 2017 GMT
        Subject: CN=selfservice,CN=user,O=realm1/emailAddress=meine
        Subject Public Key Info:
            Public Key Algorithm: rsaEncryption
                Public-Key: (2048 bit)
                Modulus:
                    00:cf:3c:d4:33:0e:12:c4:e6:da:cd:b6:56:a1:1c:
                    26:bb:26:1c:8a:4a:73:a8:58:8a:b6:1e:b3:8b:99:
                    d2:1d:07:c2:92:89:79:c0:69:d8:c8:df:28:61:98:
                    1e:b3:fe:ae:2b:bd:78:a9:f7:6e:47:dc:a3:a0:16:
                    8c:85:02:c1:4e:92:fd:72:6e:f0:c8:03:29:9b:b8:
                    00:6e:c0:83:95:c8:34:20:36:9c:b3:e5:e4:e6:76:
                    73:a3:1a:ad:40:96:e0:53:54:00:ec:76:79:9a:c6:
                    0d:7e:b6:bd:29:ec:83:f3:cb:89:a4:cb:6c:00:ba:
                    0c:c5:78:0f:ff:69:b8:94:f4:04:70:43:3f:d8:9e:
                    d7:a7:fb:5d:ce:75:8e:da:e7:c4:07:b1:9d:de:6f:
                    88:4b:b6:4d:9a:cf:f9:bc:fa:9f:cd:32:6d:f6:3a:
                    0b:0d:23:42:78:ec:97:42:bf:0e:4d:60:56:e1:d3:
                    02:f2:19:cb:84:57:90:e5:70:a1:a2:83:35:86:e2:
                    da:86:9f:f9:8a:c4:79:b3:52:28:da:cb:bb:34:ca:
                    d3:da:91:4a:cf:8d:76:a2:b2:6b:9b:f9:96:fd:09:
                    2a:da:11:23:4d:f0:cb:d6:b2:b1:0e:12:6c:9a:19:
                    65:98:87:ca:e4:ee:24:ce:44:ac:90:8f:9d:1b:c5:
                    2a:9d
                Exponent: 65537 (0x10001)
        X509v3 extensions:
            X509v3 Key Usage: 
                Digital Signature, Key Encipherment
            X509v3 Basic Constraints: 
                CA:FALSE
            Netscape Cert Type: 
                SSL Server
            Netscape Comment: 
                OpenSSL Generated Server Certificate
            X509v3 Subject Key Identifier: 
                4D:07:90:AD:FF:1D:0D:E7:1A:DD:D6:2E:FA:BA:34:CB:AA:1F:24:C6
            X509v3 Authority Key Identifier: 
                keyid:F4:A7:C0:CC:91:46:AF:64:F3:91:F2:27:F8:C8:B2:6F:8A:87:32:73
                DirName:/C=DE/ST=Hessen/O=privacyidea/CN=CA001
                serial:FB:C8:EB:AC:83:CD:12:07

            X509v3 Extended Key Usage: 
                TLS Web Server Authentication
    Signature Algorithm: sha1WithRSAEncryption
         69:12:8c:5c:11:56:21:11:d9:e8:93:2c:e2:37:8b:3d:6a:b9:
         ee:c5:23:2e:af:6c:2f:5f:56:14:ee:24:a7:a0:21:0f:e9:81:
         dd:5e:8b:79:32:0b:6f:4d:f4:47:c6:cc:db:da:73:32:8d:bb:
         52:03:51:14:61:8e:ff:d3:1c:c1:73:0b:da:90:45:20:59:cf:
         02:01:75:90:fc:1f:ff:96:5b:39:cd:b1:04:01:6d:17:dc:64:
         1b:96:cc:b5:7c:d8:2c:ed:d0:b1:19:22:00:1d:a6:37:8d:7e:
         0c:5b:f0:be:1a:b6:48:8c:73:7f:36:35:0d:ed:5b:29:7e:c9:
         c9:3f:bd:50:23:1a:d5:1f:d0:5e:0d:2e:15:81:89:a5:eb:d6:
         4a:3b:44:e7:83:4c:06:c3:0a:dd:fe:d8:1f:66:a1:79:30:32:
         0b:b0:09:18:6c:71:77:3f:38:e8:36:5e:19:65:58:65:73:bf:
         5f:77:53:d9:22:a7:8a:06:87:2c:7c:e7:11:84:00:8b:3a:fc:
         95:35:1b:e9:de:48:3e:b2:fa:88:b6:9e:3a:5a:0a:9a:4f:06:
         f3:70:4e:e4:e7:04:42:cf:96:4d:dc:ef:7b:ea:24:60:51:97:
         81:de:26:68:2d:82:9e:cd:84:55:52:db:92:b7:ca:48:43:df:
         c4:4d:1f:de
-----BEGIN CERTIFICATE-----
MIIEDzCCAvegAwIBAgIEEAAA1TANBgkqhkiG9w0BAQUFADBEMQswCQYDVQQGEwJE
RTEPMA0GA1UECAwGSGVzc2VuMRQwEgYDVQQKDAtwcml2YWN5aWRlYTEOMAwGA1UE
AwwFQ0EwMDEwHhcNMTYxMTE3MTUyMjAzWhcNMTcxMTE3MTUyMjAzWjA9MSUwIwYD
VQQDDBxzZWxmc2VydmljZSxDTj11c2VyLE89cmVhbG0xMRQwEgYJKoZIhvcNAQkB
FgVtZWluZTCCASIwDQYJKoZIhvcNAQEBBQADggEPADCCAQoCggEBAM881DMOEsTm
2s22VqEcJrsmHIpKc6hYirYes4uZ0h0HwpKJecBp2MjfKGGYHrP+riu9eKn3bkfc
o6AWjIUCwU6S/XJu8MgDKZu4AG7Ag5XINCA2nLPl5OZ2c6MarUCW4FNUAOx2eZrG
DX62vSnsg/PLiaTLbAC6DMV4D/9puJT0BHBDP9ie16f7Xc51jtrnxAexnd5viEu2
TZrP+bz6n80ybfY6Cw0jQnjsl0K/Dk1gVuHTAvIZy4RXkOVwoaKDNYbi2oaf+YrE
ebNSKNrLuzTK09qRSs+NdqKya5v5lv0JKtoRI03wy9aysQ4SbJoZZZiHyuTuJM5E
rJCPnRvFKp0CAwEAAaOCAQ4wggEKMAsGA1UdDwQEAwIFoDAJBgNVHRMEAjAAMBEG
CWCGSAGG+EIBAQQEAwIGQDAzBglghkgBhvhCAQ0EJhYkT3BlblNTTCBHZW5lcmF0
ZWQgU2VydmVyIENlcnRpZmljYXRlMB0GA1UdDgQWBBRNB5Ct/x0N5xrd1i76ujTL
qh8kxjB0BgNVHSMEbTBrgBT0p8DMkUavZPOR8if4yLJviocyc6FIpEYwRDELMAkG
A1UEBhMCREUxDzANBgNVBAgMBkhlc3NlbjEUMBIGA1UECgwLcHJpdmFjeWlkZWEx
DjAMBgNVBAMMBUNBMDAxggkA+8jrrIPNEgcwEwYDVR0lBAwwCgYIKwYBBQUHAwEw
DQYJKoZIhvcNAQEFBQADggEBAGkSjFwRViER2eiTLOI3iz1que7FIy6vbC9fVhTu
JKegIQ/pgd1ei3kyC29N9EfGzNvaczKNu1IDURRhjv/THMFzC9qQRSBZzwIBdZD8
H/+WWznNsQQBbRfcZBuWzLV82Czt0LEZIgAdpjeNfgxb8L4atkiMc382NQ3tWyl+
yck/vVAjGtUf0F4NLhWBiaXr1ko7ROeDTAbDCt3+2B9moXkwMguwCRhscXc/OOg2
XhllWGVzv193U9kip4oGhyx85xGEAIs6/JU1G+neSD6y+oi2njpaCppPBvNwTuTn
BELPlk3c73vqJGBRl4HeJmgtgp7NhFVS25K3ykhD38RNH94=
-----END CERTIFICATE-----
