Certificate:
    Data:
        Version: 3 (0x2)
        Serial Number: 268435666 (0x100000d2)
    Signature Algorithm: sha1WithRSAEncryption
        Issuer: C=DE, ST=Hessen, O=privacyidea, CN=CA001
        Validity
            Not Before: Nov 17 15:09:05 2016 GMT
            Not After : Nov 17 15:09:05 2017 GMT
        Subject: CN=Steve Test/emailAddress=steve@openssl.org
        Subject Public Key Info:
            Public Key Algorithm: rsaEncryption
                Public-Key: (2048 bit)
                Modulus:
                    00:d2:81:89:20:51:48:0f:73:f4:11:32:24:d5:1f:
                    1c:fd:5c:f5:b6:e6:c5:f0:52:81:dc:d2:af:66:4a:
                    7c:93:31:61:5c:af:d1:6d:06:70:03:60:7c:72:0c:
                    88:dd:49:cd:9e:02:6c:d2:5a:d7:53:0f:f3:da:be:
                    69:64:b5:0f:0c:00:e3:b3:50:47:a3:b3:9b:ba:13:
                    50:d6:58:5a:4b:ab:39:e0:11:ca:0a:27:67:03:78:
                    22:66:6d:92:1e:1b:5c:49:ae:e6:6b:d1:8e:3b:9d:
                    06:d3:c6:ac:4d:53:43:10:ab:e8:96:c1:87:82:97:
                    99:8f:20:d3:99:12:37:31:84:e1:8a:ff:29:03:5f:
                    22:90:3e:7f:9b:e0:20:c1:ad:dc:ae:4c:39:1a:31:
                    96:17:02:8c:b2:d9:b4:0d:20:12:9b:7d:86:54:fd:
                    33:fd:c1:2a:62:46:f8:60:96:cf:6e:01:6f:22:df:
                    13:47:e7:97:ec:05:72:23:a3:62:f8:fa:ef:ac:9c:
                    72:f0:37:cb:2f:37:cf:90:a8:27:51:86:c6:d7:78:
                    08:8f:7e:25:a2:15:70:a2:fb:1c:b6:15:5e:a0:97:
                    8b:81:4c:09:28:8a:27:3b:94:bc:71:db:5b:71:37:
                    9a:2b:16:e0:6f:b5:c9:f5:4b:4f:20:ba:65:cf:af:
                    ad:ad
                Exponent: 65537 (0x10001)
        X509v3 extensions:
            X509v3 Key Usage: 
                Digital Signature, Key Encipherment
            X509v3 Basic Constraints: 
                CA:FALSE
            Netscape Cert Type: 
                SSL Server
            Netscape Comment: 
                OpenSSL Generated Server Certificate
            X509v3 Subject Key Identifier: 
                E5:25:6D:3E:AF:0D:DD:3F:4C:F2:45:19:39:D5:14:DB:7E:9C:C0:AD
            X509v3 Authority Key Identifier: 
                keyid:F4:A7:C0:CC:91:46:AF:64:F3:91:F2:27:F8:C8:B2:6F:8A:87:32:73
                DirName:/C=DE/ST=Hessen/O=privacyidea/CN=CA001
                serial:FB:C8:EB:AC:83:CD:12:07

            X509v3 Extended Key Usage: 
                TLS Web Server Authentication
    Signature Algorithm: sha1WithRSAEncryption
         1e:68:0d:3b:b8:c5:02:c6:ce:ee:dd:73:5f:19:e4:ed:64:ea:
         82:d2:c9:cd:a9:f4:d8:da:93:c7:c0:fa:73:30:11:2b:de:56:
         28:68:ef:2e:9f:9f:d4:92:ed:cc:0b:79:ad:0b:f6:60:f4:72:
         bf:fb:fa:f9:ef:d4:22:9d:e0:28:0b:45:64:40:40:86:14:97:
         7d:5c:72:1f:a0:8b:75:fb:a9:b2:a2:7f:46:9f:e9:05:2d:21:
         ef:75:5c:b4:36:33:6c:56:d3:1d:41:3f:e1:dd:97:75:a1:ed:
         93:58:e5:d4:99:e2:ee:2c:5e:5a:1e:04:11:41:92:1a:94:44:
         d9:62:2e:36:33:94:61:3e:ef:a9:b8:84:f3:65:bc:93:3a:db:
         63:26:f9:58:61:38:68:c9:b7:85:ed:96:d0:e6:40:45:4b:10:
         ff:7d:07:6c:01:93:d8:68:f6:c8:ca:cb:05:3a:a4:3d:d8:ba:
         a9:a0:e5:03:e0:cd:4d:1e:6a:a7:0f:5d:a1:d9:b8:ce:73:72:
         dd:e3:21:2a:24:1c:42:87:02:3e:7a:f6:07:87:3d:db:5d:70:
         31:d7:ee:de:c0:5d:05:71:88:e8:5a:ab:72:aa:8f:26:7d:a6:
         de:91:1a:75:18:fb:a3:65:06:71:69:3e:e5:4d:34:48:29:d4:
         7f:96:e2:ff
-----BEGIN CERTIFICATE-----
MIIECTCCAvGgAwIBAgIEEAAA0jANBgkqhkiG9w0BAQUFADBEMQswCQYDVQQGEwJE
RTEPMA0GA1UECAwGSGVzc2VuMRQwEgYDVQQKDAtwcml2YWN5aWRlYTEOMAwGA1UE
AwwFQ0EwMDEwHhcNMTYxMTE3MTUwOTA1WhcNMTcxMTE3MTUwOTA1WjA3MRMwEQYD
VQQDDApTdGV2ZSBUZXN0MSAwHgYJKoZIhvcNAQkBFhFzdGV2ZUBvcGVuc3NsLm9y
ZzCCASIwDQYJKoZIhvcNAQEBBQADggEPADCCAQoCggEBANKBiSBRSA9z9BEyJNUf
HP1c9bbmxfBSgdzSr2ZKfJMxYVyv0W0GcANgfHIMiN1JzZ4CbNJa11MP89q+aWS1
DwwA47NQR6Ozm7oTUNZYWkurOeARygonZwN4ImZtkh4bXEmu5mvRjjudBtPGrE1T
QxCr6JbBh4KXmY8g05kSNzGE4Yr/KQNfIpA+f5vgIMGt3K5MORoxlhcCjLLZtA0g
Ept9hlT9M/3BKmJG+GCWz24BbyLfE0fnl+wFciOjYvj676yccvA3yy83z5CoJ1GG
xtd4CI9+JaIVcKL7HLYVXqCXi4FMCSiKJzuUvHHbW3E3misW4G+1yfVLTyC6Zc+v
ra0CAwEAAaOCAQ4wggEKMAsGA1UdDwQEAwIFoDAJBgNVHRMEAjAAMBEGCWCGSAGG
+EIBAQQEAwIGQDAzBglghkgBhvhCAQ0EJhYkT3BlblNTTCBHZW5lcmF0ZWQgU2Vy
dmVyIENlcnRpZmljYXRlMB0GA1UdDgQWBBTlJW0+rw3dP0zyRRk51RTbfpzArTB0
BgNVHSMEbTBrgBT0p8DMkUavZPOR8if4yLJviocyc6FIpEYwRDELMAkGA1UEBhMC
REUxDzANBgNVBAgMBkhlc3NlbjEUMBIGA1UECgwLcHJpdmFjeWlkZWExDjAMBgNV
BAMMBUNBMDAxggkA+8jrrIPNEgcwEwYDVR0lBAwwCgYIKwYBBQUHAwEwDQYJKoZI
hvcNAQEFBQADggEBAB5oDTu4xQLGzu7dc18Z5O1k6oLSyc2p9Njak8fA+nMwESve
Viho7y6fn9SS7cwLea0L9mD0cr/7+vnv1CKd4CgLRWRAQIYUl31cch+gi3X7qbKi
f0af6QUtIe91XLQ2M2xW0x1BP+Hdl3Wh7ZNY5dSZ4u4sXloeBBFBkhqURNliLjYz
lGE+76m4hPNlvJM622Mm+VhhOGjJt4XtltDmQEVLEP99B2wBk9ho9sjKywU6pD3Y
uqmg5QPgzU0eaqcPXaHZuM5zct3jISokHEKHAj569geHPdtdcDHX7t7AXQVxiOha
q3KqjyZ9pt6RGnUY+6NlBnFpPuVNNEgp1H+W4v8=
-----END CERTIFICATE-----
