Certificate:
    Data:
        Version: 3 (0x2)
        Serial Number: 268435657 (0x100000c9)
    Signature Algorithm: sha1WithRSAEncryption
        Issuer: C=DE, ST=Hessen, O=privacyidea, CN=CA001
        Validity
            Not Before: Nov 21 15:22:28 2016 GMT
            Not After : Nov 21 15:22:28 2017 GMT
        Subject: C=DE, ST=Hessen, O=privacyidea, CN=requester.localdomain
        Subject Public Key Info:
            Public Key Algorithm: rsaEncryption
                Public-Key: (2048 bit)
                Modulus:
                    00:cd:be:14:4f:fa:ce:01:3f:42:22:1b:1d:9c:af:
                    dd:92:d2:7f:db:6c:b7:3e:39:43:43:6b:13:03:f1:
                    05:f4:07:74:bc:76:69:28:0b:af:19:8e:d7:fc:e3:
                    cd:c6:58:f2:ca:7f:08:6d:53:fc:07:02:44:24:c6:
                    b4:34:4c:8c:04:fe:33:0e:40:e2:20:ba:02:73:5a:
                    f7:f5:4f:63:6e:cc:c6:b6:df:54:1d:37:39:7d:51:
                    36:26:5f:bd:dc:3f:a8:8b:6b:a2:ae:b6:9d:d6:21:
                    e7:df:41:b8:7a:28:2a:68:48:ca:a8:2d:ed:e1:e9:
                    46:5e:5a:72:6d:b4:84:38:87:91:fd:94:11:0b:28:
                    84:c6:c2:2f:2a:fb:01:f9:36:7a:09:75:d1:33:88:
                    3c:73:41:5b:c8:bf:94:89:70:a1:f0:c0:b9:2e:50:
                    53:1e:b1:17:64:69:f4:2d:81:e0:a9:0d:0e:32:e9:
                    ba:55:8a:85:f1:1b:6f:49:79:b4:7f:88:c3:0d:3e:
                    54:88:9b:3d:1f:38:8c:04:f3:ee:6a:63:2b:f5:c6:
                    db:b4:83:aa:c4:78:41:3a:7d:4b:e1:c8:3e:71:ca:
                    1b:61:59:ea:c6:c4:ca:32:5e:c9:e9:bf:12:29:e6:
                    c6:c3:63:fe:a0:55:da:7a:f1:60:98:4d:26:ed:fa:
                    70:2d
                Exponent: 65537 (0x10001)
        X509v3 extensions:
            X509v3 Key Usage: 
                Digital Signature, Key Encipherment
            X509v3 Basic Constraints: 
                CA:FALSE
            Netscape Cert Type: 
                SSL Server
            Netscape Comment: 
                OpenSSL Generated Server Certificate
            X509v3 Subject Key Identifier: 
                53:3F:ED:5D:09:07:B3:65:7B:AB:45:C9:24:5B:09:77:80:0A:96:ED
            X509v3 Authority Key Identifier: 
                keyid:F4:A7:C0:CC:91:46:AF:64:F3:91:F2:27:F8:C8:B2:6F:8A:87:32:73
                DirName:/C=DE/ST=Hessen/O=privacyidea/CN=CA001
                serial:FB:C8:EB:AC:83:CD:12:07

            X509v3 Extended Key Usage: 
                TLS Web Server Authentication
    Signature Algorithm: sha1WithRSAEncryption
         19:dc:28:2c:2c:bc:94:42:a0:c8:93:99:9c:43:02:3b:70:fb:
         ea:3f:ff:35:e2:36:35:36:d0:04:ba:75:84:cb:14:75:bc:d3:
         3c:d5:50:67:d9:26:7a:4a:0a:50:02:40:12:03:3d:ad:0c:77:
         36:53:d6:d4:d2:be:30:59:d9:fc:d9:db:d5:6f:fc:bd:d8:56:
         21:bc:bb:92:9f:2d:70:da:ce:b6:29:e4:64:4e:9e:11:42:49:
         1c:72:38:d9:bf:67:2d:bd:8a:82:8e:a9:0a:3d:c9:c9:a3:7e:
         14:32:f5:fc:c3:ac:93:aa:0c:7e:f1:d4:0c:1f:12:18:28:a4:
         ec:ed:7f:eb:64:32:f6:7b:e6:c9:3a:3c:f7:0c:62:73:79:1b:
         90:f8:95:99:1a:2e:df:7c:5e:07:e6:c9:c5:5b:2f:85:94:95:
         52:85:57:27:e2:3d:d4:d4:fe:59:05:2f:f2:54:94:6d:40:cf:
         b1:13:f2:fa:55:8a:52:56:1f:53:79:1b:d1:5a:d1:80:56:4b:
         61:85:11:32:87:a3:0c:2c:62:d5:c4:8b:f4:04:ee:a4:3d:73:
         d4:9f:6c:da:8a:e2:c7:41:e4:b8:79:c4:f7:e1:3e:98:98:03:
         85:3b:bc:cd:18:71:a3:c7:73:b5:b6:43:e4:97:07:43:cd:a6:
         67:cb:fe:56
-----BEGIN CERTIFICATE-----
MIIEJjCCAw6gAwIBAgIEEAAAyTANBgkqhkiG9w0BAQUFADBEMQswCQYDVQQGEwJE
RTEPMA0GA1UECAwGSGVzc2VuMRQwEgYDVQQKDAtwcml2YWN5aWRlYTEOMAwGA1UE
AwwFQ0EwMDEwHhcNMTYxMTIxMTUyMjI4WhcNMTcxMTIxMTUyMjI4WjBUMQswCQYD
VQQGEwJERTEPMA0GA1UECAwGSGVzc2VuMRQwEgYDVQQKDAtwcml2YWN5aWRlYTEe
MBwGA1UEAwwVcmVxdWVzdGVyLmxvY2FsZG9tYWluMIIBIjANBgkqhkiG9w0BAQEF
AAOCAQ8AMIIBCgKCAQEAzb4UT/rOAT9CIhsdnK/dktJ/22y3PjlDQ2sTA/EF9Ad0
vHZpKAuvGY7X/OPNxljyyn8IbVP8BwJEJMa0NEyMBP4zDkDiILoCc1r39U9jbszG
tt9UHTc5fVE2Jl+93D+oi2uirrad1iHn30G4eigqaEjKqC3t4elGXlpybbSEOIeR
/ZQRCyiExsIvKvsB+TZ6CXXRM4g8c0FbyL+UiXCh8MC5LlBTHrEXZGn0LYHgqQ0O
Mum6VYqF8RtvSXm0f4jDDT5UiJs9HziMBPPuamMr9cbbtIOqxHhBOn1L4cg+ccob
YVnqxsTKMl7J6b8SKebGw2P+oFXaevFgmE0m7fpwLQIDAQABo4IBDjCCAQowCwYD
VR0PBAQDAgWgMAkGA1UdEwQCMAAwEQYJYIZIAYb4QgEBBAQDAgZAMDMGCWCGSAGG
+EIBDQQmFiRPcGVuU1NMIEdlbmVyYXRlZCBTZXJ2ZXIgQ2VydGlmaWNhdGUwHQYD
VR0OBBYEFFM/7V0JB7Nle6tFySRbCXeACpbtMHQGA1UdIwRtMGuAFPSnwMyRRq9k
85HyJ/jIsm+KhzJzoUikRjBEMQswCQYDVQQGEwJERTEPMA0GA1UECAwGSGVzc2Vu
MRQwEgYDVQQKDAtwcml2YWN5aWRlYTEOMAwGA1UEAwwFQ0EwMDGCCQD7yOusg80S
BzATBgNVHSUEDDAKBggrBgEFBQcDATANBgkqhkiG9w0BAQUFAAOCAQEAGdwoLCy8
lEKgyJOZnEMCO3D76j//NeI2NTbQBLp1hMsUdbzTPNVQZ9kmekoKUAJAEgM9rQx3
NlPW1NK+MFnZ/Nnb1W/8vdhWIby7kp8tcNrOtinkZE6eEUJJHHI42b9nLb2Kgo6p
Cj3JyaN+FDL1/MOsk6oMfvHUDB8SGCik7O1/62Qy9nvmyTo89wxic3kbkPiVmRou
33xeB+bJxVsvhZSVUoVXJ+I91NT+WQUv8lSUbUDPsRPy+lWKUlYfU3kb0VrRgFZL
YYURMoejDCxi1cSL9ATupD1z1J9s2orix0HkuHnE9+E+mJgDhTu8zRhxo8dztbZD
5JcHQ82mZ8v+Vg==
-----END CERTIFICATE-----
