Certificate:
    Data:
        Version: 3 (0x2)
        Serial Number: 268435668 (0x100000d4)
    Signature Algorithm: sha1WithRSAEncryption
        Issuer: C=DE, ST=Hessen, O=privacyidea, CN=CA001
        Validity
            Not Before: Nov 17 15:13:07 2016 GMT
            Not After : Nov 17 15:13:07 2017 GMT
        Subject: OU=realm1, CN=cornelius/emailAddress=user@localhost.localdomain
        Subject Public Key Info:
            Public Key Algorithm: rsaEncryption
                Public-Key: (2048 bit)
                Modulus:
                    00:a8:55:39:79:3a:ba:8b:c3:9f:67:40:02:42:0e:
                    88:90:98:7d:9d:a1:2b:dd:fc:91:a4:08:d0:8f:b0:
                    bf:71:83:08:30:f4:c6:d8:d8:b7:1b:14:65:a2:66:
                    d6:42:a6:df:fd:8f:9a:a7:f3:58:ff:8d:0b:4a:70:
                    f7:2b:dd:d9:6e:97:4f:0a:51:3a:31:0b:f2:93:eb:
                    2b:46:14:76:f5:1d:62:c2:46:75:eb:03:2b:ac:df:
                    f8:bb:92:31:ce:13:ce:7e:8c:65:10:f4:c3:2f:7e:
                    d0:34:74:2c:6b:7f:f7:1c:58:87:d3:b7:bf:a6:bc:
                    7d:6c:58:78:6f:3b:a0:31:ab:46:d0:20:41:c3:30:
                    9b:32:56:f5:38:6a:9a:31:21:63:13:5a:81:5d:71:
                    e1:0d:4c:61:e9:34:ce:5a:86:69:53:66:fe:45:36:
                    9d:eb:ee:46:d9:d4:79:ea:ce:5a:c1:38:24:85:fc:
                    c9:48:d7:b2:5f:86:0d:07:ca:0a:81:a4:fd:1d:e9:
                    14:65:de:c2:ee:54:58:64:cb:59:7a:98:07:d3:67:
                    eb:79:00:25:f2:ae:7a:21:98:e9:81:54:f9:95:5c:
                    3d:c1:63:9d:18:71:9b:94:bb:95:50:70:df:ca:96:
                    fd:a6:7e:90:00:6d:e7:7c:75:ca:65:d4:02:65:05:
                    8c:99
                Exponent: 65537 (0x10001)
        X509v3 extensions:
            X509v3 Key Usage: 
                Digital Signature, Key Encipherment
            X509v3 Basic Constraints: 
                CA:FALSE
            Netscape Cert Type: 
                SSL Server
            Netscape Comment: 
                OpenSSL Generated Server Certificate
            X509v3 Subject Key Identifier: 
                A6:B5:5A:B4:C2:6A:2D:3A:1A:D4:18:F3:AC:E6:98:D4:B5:64:4A:BB
            X509v3 Authority Key Identifier: 
                keyid:F4:A7:C0:CC:91:46:AF:64:F3:91:F2:27:F8:C8:B2:6F:8A:87:32:73
                DirName:/C=DE/ST=Hessen/O=privacyidea/CN=CA001
                serial:FB:C8:EB:AC:83:CD:12:07

            X509v3 Extended Key Usage: 
                TLS Web Server Authentication
    Signature Algorithm: sha1WithRSAEncryption
         ad:6f:98:f2:be:a4:82:7c:20:33:67:50:38:5c:ec:bc:ee:a3:
         9f:73:98:c5:b5:79:56:34:23:fc:7e:b0:98:1d:e4:7b:f9:3c:
         c7:47:e3:97:2e:15:35:f3:82:24:a7:4c:97:34:df:c5:a8:e1:
         b6:0e:fe:47:f2:57:c6:c5:1e:d0:72:fe:da:6e:03:49:03:bb:
         f1:b8:ab:b8:05:15:b0:c8:dd:37:28:2a:19:f3:36:3f:87:b1:
         99:0e:54:44:60:f9:48:c8:03:4e:49:e2:7b:ac:50:57:d4:e3:
         bf:14:5f:12:b9:a3:03:85:58:f8:6d:8c:66:63:2d:cc:62:21:
         69:3b:19:e0:30:8a:1c:6a:d6:a1:e9:bb:7a:af:c7:78:5c:88:
         d0:82:9e:04:4d:4a:ef:e0:d5:09:8b:52:f5:d5:aa:7d:b4:d8:
         0d:d0:73:ed:53:68:cd:58:37:6c:4c:cd:c8:ed:e1:94:c5:c7:
         f4:f0:0b:63:34:33:34:de:66:5a:11:78:48:21:ce:de:7f:ab:
         76:44:a3:af:13:f4:8b:d9:ea:0b:4a:fd:4b:9a:15:23:67:3f:
         49:ef:12:3d:65:5b:54:20:f1:9c:e7:3a:4e:8b:d2:7a:29:21:
         5f:79:39:5d:fa:5b:60:ad:ae:72:63:ed:7c:99:61:8c:f0:7c:
         07:2c:3e:ff
-----BEGIN CERTIFICATE-----
MIIEIjCCAwqgAwIBAgIEEAAA1DANBgkqhkiG9w0BAQUFADBEMQswCQYDVQQGEwJE
RTEPMA0GA1UECAwGSGVzc2VuMRQwEgYDVQQKDAtwcml2YWN5aWRlYTEOMAwGA1UE
AwwFQ0EwMDEwHhcNMTYxMTE3MTUxMzA3WhcNMTcxMTE3MTUxMzA3WjBQMQ8wDQYD
VQQLDAZyZWFsbTExEjAQBgNVBAMMCWNvcm5lbGl1czEpMCcGCSqGSIb3DQEJARYa
dXNlckBsb2NhbGhvc3QubG9jYWxkb21haW4wggEiMA0GCSqGSIb3DQEBAQUAA4IB
DwAwggEKAoIBAQCoVTl5OrqLw59nQAJCDoiQmH2doSvd/JGkCNCPsL9xgwgw9MbY
2LcbFGWiZtZCpt/9j5qn81j/jQtKcPcr3dlul08KUToxC/KT6ytGFHb1HWLCRnXr
Ayus3/i7kjHOE85+jGUQ9MMvftA0dCxrf/ccWIfTt7+mvH1sWHhvO6Axq0bQIEHD
MJsyVvU4apoxIWMTWoFdceENTGHpNM5ahmlTZv5FNp3r7kbZ1HnqzlrBOCSF/MlI
17Jfhg0HygqBpP0d6RRl3sLuVFhky1l6mAfTZ+t5ACXyrnohmOmBVPmVXD3BY50Y
cZuUu5VQcN/Klv2mfpAAbed8dcpl1AJlBYyZAgMBAAGjggEOMIIBCjALBgNVHQ8E
BAMCBaAwCQYDVR0TBAIwADARBglghkgBhvhCAQEEBAMCBkAwMwYJYIZIAYb4QgEN
BCYWJE9wZW5TU0wgR2VuZXJhdGVkIFNlcnZlciBDZXJ0aWZpY2F0ZTAdBgNVHQ4E
FgQUprVatMJqLToa1BjzrOaY1LVkSrswdAYDVR0jBG0wa4AU9KfAzJFGr2TzkfIn
+Miyb4qHMnOhSKRGMEQxCzAJBgNVBAYTAkRFMQ8wDQYDVQQIDAZIZXNzZW4xFDAS
BgNVBAoMC3ByaXZhY3lpZGVhMQ4wDAYDVQQDDAVDQTAwMYIJAPvI66yDzRIHMBMG
A1UdJQQMMAoGCCsGAQUFBwMBMA0GCSqGSIb3DQEBBQUAA4IBAQCtb5jyvqSCfCAz
Z1A4XOy87qOfc5jFtXlWNCP8frCYHeR7+TzHR+OXLhU184Ikp0yXNN/FqOG2Dv5H
8lfGxR7Qcv7abgNJA7vxuKu4BRWwyN03KCoZ8zY/h7GZDlREYPlIyANOSeJ7rFBX
1OO/FF8SuaMDhVj4bYxmYy3MYiFpOxngMIocatah6bt6r8d4XIjQgp4ETUrv4NUJ
i1L11ap9tNgN0HPtU2jNWDdsTM3I7eGUxcf08AtjNDM03mZaEXhIIc7ef6t2RKOv
E/SL2eoLSv1LmhUjZz9J7xI9ZVtUIPGc5zpOi9J6KSFfeTld+ltgra5yY+18mWGM
8HwHLD7/
-----END CERTIFICATE-----
