Certificate:
    Data:
        Version: 3 (0x2)
        Serial Number: 268435662 (0x100000ce)
    Signature Algorithm: sha1WithRSAEncryption
        Issuer: C=DE, ST=Hessen, O=privacyidea, CN=CA001
        Validity
            Not Before: Nov 21 15:27:42 2016 GMT
            Not After : Nov 21 15:27:42 2017 GMT
        Subject: OU=realm1, CN=cornelius/emailAddress=user@localhost.localdomain
        Subject Public Key Info:
            Public Key Algorithm: rsaEncryption
                Public-Key: (2048 bit)
                Modulus:
                    00:cb:e1:cc:10:0c:fc:88:f0:db:92:54:a7:b5:c6:
                    80:6c:a9:f8:da:17:54:e1:bc:f9:c6:8b:e0:e4:d4:
                    25:1e:de:29:cb:5c:2a:fe:c7:9e:b0:e7:f8:3e:16:
                    73:7d:4d:d7:8f:0c:8c:6d:98:f2:84:f7:ac:c3:00:
                    cb:36:8f:fa:42:e7:6d:94:72:21:6a:86:1d:a7:ac:
                    02:20:f7:4a:91:2a:bd:33:7c:7a:16:83:02:18:74:
                    3d:be:59:af:28:12:c5:54:91:54:6f:45:61:59:4c:
                    cb:62:4e:1a:34:8f:b6:cc:77:83:b4:60:9d:ac:8e:
                    ea:fd:c5:34:29:23:b8:66:a3:35:39:42:91:89:cc:
                    d9:3b:62:89:55:36:22:50:76:ae:2b:a7:cb:87:f3:
                    7f:2d:fb:a7:31:e6:5a:2e:fa:7c:22:14:97:48:d1:
                    11:bb:9c:8a:fe:4d:d0:77:19:a5:49:9c:00:cf:6f:
                    1c:67:73:39:00:70:d2:84:b5:d5:ef:6f:2d:92:0d:
                    ec:a1:3b:e5:b5:4a:f9:fd:9e:21:a7:37:5f:16:88:
                    72:bb:8e:c2:e3:71:bd:d5:d9:c5:55:5e:8e:13:1f:
                    2e:bc:73:14:19:0a:06:5b:12:b9:cc:ae:f0:0c:97:
                    0a:24:0f:b4:31:96:db:3e:32:40:da:6f:e5:99:ca:
                    1e:5d
                Exponent: 65537 (0x10001)
        X509v3 extensions:
            X509v3 Key Usage: 
                Digital Signature, Key Encipherment
            X509v3 Basic Constraints: 
                CA:FALSE
            Netscape Cert Type: 
                SSL Server
            Netscape Comment: 
                OpenSSL Generated Server Certificate
            X509v3 Subject Key Identifier: 
                B3:30:3F:1E:82:AC:2A:49:4F:31:E9:44:8B:7D:E2:FD:6A:CB:00:DA
            X509v3 Authority Key Identifier: 
                keyid:F4:A7:C0:CC:91:46:AF:64:F3:91:F2:27:F8:C8:B2:6F:8A:87:32:73
                DirName:/C=DE/ST=Hessen/O=privacyidea/CN=CA001
                serial:FB:C8:EB:AC:83:CD:12:07

            X509v3 Extended Key Usage: 
                TLS Web Server Authentication
    Signature Algorithm: sha1WithRSAEncryption
         9e:89:40:ad:7f:ee:f6:ba:d0:d6:ff:a4:fc:9b:7e:c4:3f:d3:
         e6:d3:d5:1e:53:7e:9b:15:26:74:f5:35:d8:40:98:0b:f1:d9:
         c1:e0:37:3d:24:25:c1:fd:99:1f:47:58:53:72:8d:da:2d:23:
         b4:81:cd:89:63:93:eb:ad:18:76:06:d5:b3:bd:b8:d3:f1:91:
         5e:3b:17:03:d0:07:c9:b6:97:ca:ae:8f:c5:4d:07:ad:ad:85:
         29:0e:2e:6a:c3:43:6d:15:ae:a6:0e:a0:bb:7f:64:a8:7a:89:
         33:ec:c6:5f:10:84:81:5d:83:d0:be:78:5b:a6:e3:fe:af:bd:
         0e:f1:02:25:f1:ad:fb:e0:74:2a:27:d6:c7:c7:b2:87:51:c4:
         4f:9f:4b:6f:af:89:35:0e:c9:d6:1d:42:c4:26:c0:b0:8e:f0:
         0e:5a:44:a2:1c:b4:b9:b8:c0:37:3e:ab:a9:26:bb:33:53:5f:
         ac:ae:fe:ce:e9:3c:3b:e5:91:aa:01:d3:0d:ae:f2:42:c3:e4:
         33:e4:0a:af:2a:54:a2:7e:a6:c8:f2:a7:cf:bd:10:6d:7d:e7:
         f1:7b:c5:b3:07:f1:38:00:28:85:e3:ad:56:df:0e:2c:59:57:
         2f:bf:a5:e8:8c:c2:f9:1a:ad:f1:8b:06:b5:ae:16:18:46:a2:
         43:4f:84:14
-----BEGIN CERTIFICATE-----
MIIEIjCCAwqgAwIBAgIEEAAAzjANBgkqhkiG9w0BAQUFADBEMQswCQYDVQQGEwJE
RTEPMA0GA1UECAwGSGVzc2VuMRQwEgYDVQQKDAtwcml2YWN5aWRlYTEOMAwGA1UE
AwwFQ0EwMDEwHhcNMTYxMTIxMTUyNzQyWhcNMTcxMTIxMTUyNzQyWjBQMQ8wDQYD
VQQLDAZyZWFsbTExEjAQBgNVBAMMCWNvcm5lbGl1czEpMCcGCSqGSIb3DQEJARYa
dXNlckBsb2NhbGhvc3QubG9jYWxkb21haW4wggEiMA0GCSqGSIb3DQEBAQUAA4IB
DwAwggEKAoIBAQDL4cwQDPyI8NuSVKe1xoBsqfjaF1ThvPnGi+Dk1CUe3inLXCr+
x56w5/g+FnN9TdePDIxtmPKE96zDAMs2j/pC522UciFqhh2nrAIg90qRKr0zfHoW
gwIYdD2+Wa8oEsVUkVRvRWFZTMtiTho0j7bMd4O0YJ2sjur9xTQpI7hmozU5QpGJ
zNk7YolVNiJQdq4rp8uH838t+6cx5lou+nwiFJdI0RG7nIr+TdB3GaVJnADPbxxn
czkAcNKEtdXvby2SDeyhO+W1Svn9niGnN18WiHK7jsLjcb3V2cVVXo4THy68cxQZ
CgZbErnMrvAMlwokD7Qxlts+MkDab+WZyh5dAgMBAAGjggEOMIIBCjALBgNVHQ8E
BAMCBaAwCQYDVR0TBAIwADARBglghkgBhvhCAQEEBAMCBkAwMwYJYIZIAYb4QgEN
BCYWJE9wZW5TU0wgR2VuZXJhdGVkIFNlcnZlciBDZXJ0aWZpY2F0ZTAdBgNVHQ4E
FgQUszA/HoKsKklPMelEi33i/WrLANowdAYDVR0jBG0wa4AU9KfAzJFGr2TzkfIn
+Miyb4qHMnOhSKRGMEQxCzAJBgNVBAYTAkRFMQ8wDQYDVQQIDAZIZXNzZW4xFDAS
BgNVBAoMC3ByaXZhY3lpZGVhMQ4wDAYDVQQDDAVDQTAwMYIJAPvI66yDzRIHMBMG
A1UdJQQMMAoGCCsGAQUFBwMBMA0GCSqGSIb3DQEBBQUAA4IBAQCeiUCtf+72utDW
/6T8m37EP9Pm09UeU36bFSZ09TXYQJgL8dnB4Dc9JCXB/ZkfR1hTco3aLSO0gc2J
Y5PrrRh2BtWzvbjT8ZFeOxcD0AfJtpfKro/FTQetrYUpDi5qw0NtFa6mDqC7f2So
eokz7MZfEISBXYPQvnhbpuP+r70O8QIl8a374HQqJ9bHx7KHUcRPn0tvr4k1DsnW
HULEJsCwjvAOWkSiHLS5uMA3PqupJrszU1+srv7O6Tw75ZGqAdMNrvJCw+Qz5Aqv
KlSifqbI8qfPvRBtfefxe8WzB/E4ACiF461W3w4sWVcvv6XojML5Gq3xiwa1rhYY
RqJDT4QU
-----END CERTIFICATE-----
