Certificate:
    Data:
        Version: 3 (0x2)
        Serial Number: 268435661 (0x100000cd)
    Signature Algorithm: sha1WithRSAEncryption
        Issuer: C=DE, ST=Hessen, O=privacyidea, CN=CA001
        Validity
            Not Before: Nov 21 15:27:40 2016 GMT
            Not After : Nov 21 15:27:40 2017 GMT
        Subject: C=DE, ST=Hessen, O=privacyidea, CN=requester.localdomain
        Subject Public Key Info:
            Public Key Algorithm: rsaEncryption
                Public-Key: (2048 bit)
                Modulus:
                    00:cd:be:14:4f:fa:ce:01:3f:42:22:1b:1d:9c:af:
                    dd:92:d2:7f:db:6c:b7:3e:39:43:43:6b:13:03:f1:
                    05:f4:07:74:bc:76:69:28:0b:af:19:8e:d7:fc:e3:
                    cd:c6:58:f2:ca:7f:08:6d:53:fc:07:02:44:24:c6:
                    b4:34:4c:8c:04:fe:33:0e:40:e2:20:ba:02:73:5a:
                    f7:f5:4f:63:6e:cc:c6:b6:df:54:1d:37:39:7d:51:
                    36:26:5f:bd:dc:3f:a8:8b:6b:a2:ae:b6:9d:d6:21:
                    e7:df:41:b8:7a:28:2a:68:48:ca:a8:2d:ed:e1:e9:
                    46:5e:5a:72:6d:b4:84:38:87:91:fd:94:11:0b:28:
                    84:c6:c2:2f:2a:fb:01:f9:36:7a:09:75:d1:33:88:
                    3c:73:41:5b:c8:bf:94:89:70:a1:f0:c0:b9:2e:50:
                    53:1e:b1:17:64:69:f4:2d:81:e0:a9:0d:0e:32:e9:
                    ba:55:8a:85:f1:1b:6f:49:79:b4:7f:88:c3:0d:3e:
                    54:88:9b:3d:1f:38:8c:04:f3:ee:6a:63:2b:f5:c6:
                    db:b4:83:aa:c4:78:41:3a:7d:4b:e1:c8:3e:71:ca:
                    1b:61:59:ea:c6:c4:ca:32:5e:c9:e9:bf:12:29:e6:
                    c6:c3:63:fe:a0:55:da:7a:f1:60:98:4d:26:ed:fa:
                    70:2d
                Exponent: 65537 (0x10001)
        X509v3 extensions:
            X509v3 Key Usage: 
                Digital Signature, Key Encipherment
            X509v3 Basic Constraints: 
                CA:FALSE
            Netscape Cert Type: 
                SSL Server
            Netscape Comment: 
                OpenSSL Generated Server Certificate
            X509v3 Subject Key Identifier: 
                53:3F:ED:5D:09:07:B3:65:7B:AB:45:C9:24:5B:09:77:80:0A:96:ED
            X509v3 Authority Key Identifier: 
                keyid:F4:A7:C0:CC:91:46:AF:64:F3:91:F2:27:F8:C8:B2:6F:8A:87:32:73
                DirName:/C=DE/ST=Hessen/O=privacyidea/CN=CA001
                serial:FB:C8:EB:AC:83:CD:12:07

            X509v3 Extended Key Usage: 
                TLS Web Server Authentication
    Signature Algorithm: sha1WithRSAEncryption
         30:90:40:d9:3a:2e:05:4f:a5:74:53:a9:bc:62:f7:e9:df:a2:
         28:17:97:16:41:ef:00:c8:87:df:f8:6c:12:80:99:64:4d:74:
         1a:96:9c:b9:7f:01:80:53:20:aa:27:4c:4d:8c:a9:27:e9:fe:
         ae:8f:96:43:cc:d1:4e:25:3d:2f:98:20:4f:63:4d:e6:df:07:
         e4:16:ba:1b:04:fd:23:5a:92:e3:c8:14:cc:7f:46:ce:42:2f:
         04:d8:b7:ad:02:d7:f8:12:b9:a9:34:5a:f1:5b:90:d2:b8:fd:
         5f:b2:b5:8c:15:2e:5c:41:45:6d:0f:84:da:57:ac:38:00:e6:
         8b:bf:13:86:5f:6f:55:aa:54:09:e5:18:d9:3a:87:bf:77:ab:
         72:c6:03:82:94:4f:51:77:ab:9c:5d:b4:89:6b:23:72:cc:c6:
         2e:82:94:40:c2:f8:e6:cc:ca:a9:62:10:2d:3d:1a:46:24:a9:
         05:7a:48:51:c0:bc:2f:f6:71:60:bb:a3:74:e3:9e:35:3c:da:
         b0:a2:2a:4b:d0:00:60:77:42:a9:30:ba:bb:cd:f8:7b:51:cb:
         85:74:69:4a:e0:92:a7:f6:74:6a:88:22:67:d6:8c:54:fc:04:
         c3:43:b0:5e:5e:35:49:35:46:10:75:9c:bb:cc:0c:57:f4:06:
         68:32:b4:9f
-----BEGIN CERTIFICATE-----
MIIEJjCCAw6gAwIBAgIEEAAAzTANBgkqhkiG9w0BAQUFADBEMQswCQYDVQQGEwJE
RTEPMA0GA1UECAwGSGVzc2VuMRQwEgYDVQQKDAtwcml2YWN5aWRlYTEOMAwGA1UE
AwwFQ0EwMDEwHhcNMTYxMTIxMTUyNzQwWhcNMTcxMTIxMTUyNzQwWjBUMQswCQYD
VQQGEwJERTEPMA0GA1UECAwGSGVzc2VuMRQwEgYDVQQKDAtwcml2YWN5aWRlYTEe
MBwGA1UEAwwVcmVxdWVzdGVyLmxvY2FsZG9tYWluMIIBIjANBgkqhkiG9w0BAQEF
AAOCAQ8AMIIBCgKCAQEAzb4UT/rOAT9CIhsdnK/dktJ/22y3PjlDQ2sTA/EF9Ad0
vHZpKAuvGY7X/OPNxljyyn8IbVP8BwJEJMa0NEyMBP4zDkDiILoCc1r39U9jbszG
tt9UHTc5fVE2Jl+93D+oi2uirrad1iHn30G4eigqaEjKqC3t4elGXlpybbSEOIeR
/ZQRCyiExsIvKvsB+TZ6CXXRM4g8c0FbyL+UiXCh8MC5LlBTHrEXZGn0LYHgqQ0O
Mum6VYqF8RtvSXm0f4jDDT5UiJs9HziMBPPuamMr9cbbtIOqxHhBOn1L4cg+ccob
YVnqxsTKMl7J6b8SKebGw2P+oFXaevFgmE0m7fpwLQIDAQABo4IBDjCCAQowCwYD
VR0PBAQDAgWgMAkGA1UdEwQCMAAwEQYJYIZIAYb4QgEBBAQDAgZAMDMGCWCGSAGG
+EIBDQQmFiRPcGVuU1NMIEdlbmVyYXRlZCBTZXJ2ZXIgQ2VydGlmaWNhdGUwHQYD
VR0OBBYEFFM/7V0JB7Nle6tFySRbCXeACpbtMHQGA1UdIwRtMGuAFPSnwMyRRq9k
85HyJ/jIsm+KhzJzoUikRjBEMQswCQYDVQQGEwJERTEPMA0GA1UECAwGSGVzc2Vu
MRQwEgYDVQQKDAtwcml2YWN5aWRlYTEOMAwGA1UEAwwFQ0EwMDGCCQD7yOusg80S
BzATBgNVHSUEDDAKBggrBgEFBQcDATANBgkqhkiG9w0BAQUFAAOCAQEAMJBA2Tou
BU+ldFOpvGL36d+iKBeXFkHvAMiH3/hsEoCZZE10GpacuX8BgFMgqidMTYypJ+n+
ro+WQ8zRTiU9L5ggT2NN5t8H5Ba6GwT9I1qS48gUzH9GzkIvBNi3rQLX+BK5qTRa
8VuQ0rj9X7K1jBUuXEFFbQ+E2lesOADmi78Thl9vVapUCeUY2TqHv3ercsYDgpRP
UXernF20iWsjcszGLoKUQML45szKqWIQLT0aRiSpBXpIUcC8L/ZxYLujdOOeNTza
sKIqS9AAYHdCqTC6u834e1HLhXRpSuCSp/Z0aogiZ9aMVPwEw0OwXl41STVGEHWc
u8wMV/QGaDK0nw==
-----END CERTIFICATE-----
