cgvar._bufferdict
BufferDict
p0
(tRp1
(dp2
S'layout'
p3
ccollections
OrderedDict
p4
((lp5
(lp6
S'a'
p7
a(I0
(ttp8
aa(lp9
S'b'
p10
a(I1
(ttp11
aatp12
Rp13
sS'buf'
p14
(cnumpy.core.multiarray
_reconstruct
p15
(cnumpy
ndarray
p16
(I0
tp17
g10
tp18
Rp19
(I1
(I2
tp20
cnumpy
dtype
p21
(S'f8'
p22
I0
I1
tp23
Rp24
(I3
S'<'
p25
NNNI-1
I-1
I0
tp26
bI00
S'\xd6ax"\xd6-\xd0?\xef\xc0\xa7\xc5\x84\xb8\xdc?'
p27
tp28
bg15
(g16
(I0
tp29
g10
tp30
Rp31
(I1
(I2
I2
tp32
g24
I00
S'g\xc4\x1dI\xfc\x1bQ? \np\xe36\x97@? \np\xe36\x97@?\x01\xcb(\x88z(q?'
p33
tp34
btp35
sb.