Certificate:
    Data:
        Version: 3 (0x2)
        Serial Number: 268435666 (0x100000d2)
    Signature Algorithm: sha1WithRSAEncryption
        Issuer: C=DE, ST=Hessen, O=privacyidea, CN=CA001
        Validity
            Not Before: Oct 24 15:45:50 2016 GMT
            Not After : Oct 24 15:45:50 2017 GMT
        Subject: C=DE, ST=Hessen, O=privacyidea, CN=usercert
        Subject Public Key Info:
            Public Key Algorithm: rsaEncryption
                Public-Key: (2048 bit)
                Modulus:
                    00:dc:2f:d1:5f:29:97:d4:7c:c3:53:c8:30:bd:4b:
                    67:70:2c:24:6b:b8:5e:eb:21:7a:48:12:56:7c:81:
                    5c:48:75:b6:68:eb:f6:f2:98:4e:50:51:d1:7f:6c:
                    73:f3:0a:a7:ae:be:48:5e:e5:d6:e1:d9:2a:7c:32:
                    6e:4e:fd:08:f6:5a:54:49:23:73:c3:b9:07:18:d1:
                    ef:b3:ac:f8:8a:dc:94:96:a4:90:3a:8e:74:df:e6:
                    0d:37:1b:bd:5b:b7:25:1a:56:39:da:6f:91:aa:5e:
                    1c:74:f3:f9:7c:14:01:83:12:65:76:c7:bb:fe:36:
                    5b:95:e9:72:65:83:ed:3e:98:30:71:fa:87:dd:a3:
                    36:5a:30:03:2e:26:e0:61:d1:bf:02:3f:b6:06:1f:
                    4a:89:28:1c:5c:a2:ff:4e:be:94:e6:8c:e0:da:82:
                    f1:9d:29:32:48:30:73:b4:04:f6:42:1e:be:f7:e2:
                    32:32:27:3c:9d:89:2f:70:3e:85:9a:6f:5c:c5:09:
                    c0:8c:32:2f:72:22:c9:d2:95:1f:b6:ac:72:60:72:
                    b7:82:4d:6b:ce:5b:e3:00:d0:d2:2f:58:c6:e0:10:
                    e5:51:ca:4d:3b:2e:e6:7e:ab:84:d6:56:f1:93:35:
                    a0:93:64:26:81:75:2f:91:b5:16:06:38:0b:db:cc:
                    2d:07
                Exponent: 65537 (0x10001)
        X509v3 extensions:
            X509v3 Key Usage: 
                Digital Signature, Key Encipherment
            X509v3 Basic Constraints: 
                CA:FALSE
            Netscape Cert Type: 
                SSL Server
            Netscape Comment: 
                OpenSSL Generated Server Certificate
            X509v3 Subject Key Identifier: 
                FC:14:D1:F0:4B:8D:00:90:F2:F5:B8:71:9E:4E:97:C3:92:54:AD:0B
            X509v3 Authority Key Identifier: 
                keyid:F4:A7:C0:CC:91:46:AF:64:F3:91:F2:27:F8:C8:B2:6F:8A:87:32:73
                DirName:/C=DE/ST=Hessen/O=privacyidea/CN=CA001
                serial:FB:C8:EB:AC:83:CD:12:07

            X509v3 Extended Key Usage: 
                TLS Web Server Authentication
    Signature Algorithm: sha1WithRSAEncryption
         33:30:ce:24:fe:6b:b2:82:9b:e3:35:0b:fa:99:8c:93:64:bc:
         f8:39:e9:da:ac:20:a2:56:73:51:5b:13:fd:6d:43:83:0e:89:
         a6:3b:3c:29:0c:53:68:a5:b4:c9:34:6c:29:c3:e5:1e:ce:9c:
         81:0f:29:95:09:b6:64:a2:6a:22:a1:fa:35:bf:2e:e9:b9:77:
         63:53:da:f9:39:ef:85:03:57:fa:05:f7:bb:3f:06:6f:08:1e:
         1b:62:bc:52:85:91:83:b2:20:a7:fe:b3:f4:e8:cd:f7:c7:2f:
         b9:64:90:f2:5c:81:82:6c:89:ff:48:b4:30:84:b1:38:34:fc:
         00:e3:ac:7b:9a:47:f1:b8:ff:38:75:2c:e5:cb:86:16:13:d1:
         9c:a2:c8:20:5b:ae:07:09:5f:ba:19:81:6a:d4:23:ad:aa:56:
         73:85:50:6f:fd:f3:4b:08:6a:b1:73:d7:18:b1:46:c8:7c:b1:
         db:4e:98:53:0d:64:f6:64:65:9b:c6:dc:47:5e:e2:3a:92:c1:
         0a:e8:56:df:5d:22:bf:5e:59:62:e3:95:f1:85:c3:aa:c0:40:
         ff:db:06:47:18:6e:73:e8:9c:74:c9:df:47:06:92:6d:46:1a:
         b0:5f:b5:05:6a:68:84:95:10:98:b0:ab:e2:16:58:27:2a:3c:
         91:02:26:24
-----BEGIN CERTIFICATE-----
MIIEGTCCAwGgAwIBAgIEEAAA0jANBgkqhkiG9w0BAQUFADBEMQswCQYDVQQGEwJE
RTEPMA0GA1UECAwGSGVzc2VuMRQwEgYDVQQKDAtwcml2YWN5aWRlYTEOMAwGA1UE
AwwFQ0EwMDEwHhcNMTYxMDI0MTU0NTUwWhcNMTcxMDI0MTU0NTUwWjBHMQswCQYD
VQQGEwJERTEPMA0GA1UECAwGSGVzc2VuMRQwEgYDVQQKDAtwcml2YWN5aWRlYTER
MA8GA1UEAwwIdXNlcmNlcnQwggEiMA0GCSqGSIb3DQEBAQUAA4IBDwAwggEKAoIB
AQDcL9FfKZfUfMNTyDC9S2dwLCRruF7rIXpIElZ8gVxIdbZo6/bymE5QUdF/bHPz
Cqeuvkhe5dbh2Sp8Mm5O/Qj2WlRJI3PDuQcY0e+zrPiK3JSWpJA6jnTf5g03G71b
tyUaVjnab5GqXhx08/l8FAGDEmV2x7v+NluV6XJlg+0+mDBx+ofdozZaMAMuJuBh
0b8CP7YGH0qJKBxcov9OvpTmjODagvGdKTJIMHO0BPZCHr734jIyJzydiS9wPoWa
b1zFCcCMMi9yIsnSlR+2rHJgcreCTWvOW+MA0NIvWMbgEOVRyk07LuZ+q4TWVvGT
NaCTZCaBdS+RtRYGOAvbzC0HAgMBAAGjggEOMIIBCjALBgNVHQ8EBAMCBaAwCQYD
VR0TBAIwADARBglghkgBhvhCAQEEBAMCBkAwMwYJYIZIAYb4QgENBCYWJE9wZW5T
U0wgR2VuZXJhdGVkIFNlcnZlciBDZXJ0aWZpY2F0ZTAdBgNVHQ4EFgQU/BTR8EuN
AJDy9bhxnk6Xw5JUrQswdAYDVR0jBG0wa4AU9KfAzJFGr2TzkfIn+Miyb4qHMnOh
SKRGMEQxCzAJBgNVBAYTAkRFMQ8wDQYDVQQIDAZIZXNzZW4xFDASBgNVBAoMC3By
aXZhY3lpZGVhMQ4wDAYDVQQDDAVDQTAwMYIJAPvI66yDzRIHMBMGA1UdJQQMMAoG
CCsGAQUFBwMBMA0GCSqGSIb3DQEBBQUAA4IBAQAzMM4k/muygpvjNQv6mYyTZLz4
OenarCCiVnNRWxP9bUODDommOzwpDFNopbTJNGwpw+UezpyBDymVCbZkomoiofo1
vy7puXdjU9r5Oe+FA1f6Bfe7PwZvCB4bYrxShZGDsiCn/rP06M33xy+5ZJDyXIGC
bIn/SLQwhLE4NPwA46x7mkfxuP84dSzly4YWE9GcosggW64HCV+6GYFq1COtqlZz
hVBv/fNLCGqxc9cYsUbIfLHbTphTDWT2ZGWbxtxHXuI6ksEK6FbfXSK/Xlli45Xx
hcOqwED/2wZHGG5z6Jx0yd9HBpJtRhqwX7UFamiElRCYsKviFlgnKjyRAiYk
-----END CERTIFICATE-----
