Certificate:
    Data:
        Version: 3 (0x2)
        Serial Number: 268435659 (0x100000cb)
    Signature Algorithm: sha1WithRSAEncryption
        Issuer: C=DE, ST=Hessen, O=privacyidea, CN=CA001
        Validity
            Not Before: Nov  7 15:52:52 2016 GMT
            Not After : Nov  7 15:52:52 2017 GMT
        Subject: C=DE, ST=Hessen, O=privacyidea, CN=usercert
        Subject Public Key Info:
            Public Key Algorithm: rsaEncryption
                Public-Key: (2048 bit)
                Modulus:
                    00:dc:2f:d1:5f:29:97:d4:7c:c3:53:c8:30:bd:4b:
                    67:70:2c:24:6b:b8:5e:eb:21:7a:48:12:56:7c:81:
                    5c:48:75:b6:68:eb:f6:f2:98:4e:50:51:d1:7f:6c:
                    73:f3:0a:a7:ae:be:48:5e:e5:d6:e1:d9:2a:7c:32:
                    6e:4e:fd:08:f6:5a:54:49:23:73:c3:b9:07:18:d1:
                    ef:b3:ac:f8:8a:dc:94:96:a4:90:3a:8e:74:df:e6:
                    0d:37:1b:bd:5b:b7:25:1a:56:39:da:6f:91:aa:5e:
                    1c:74:f3:f9:7c:14:01:83:12:65:76:c7:bb:fe:36:
                    5b:95:e9:72:65:83:ed:3e:98:30:71:fa:87:dd:a3:
                    36:5a:30:03:2e:26:e0:61:d1:bf:02:3f:b6:06:1f:
                    4a:89:28:1c:5c:a2:ff:4e:be:94:e6:8c:e0:da:82:
                    f1:9d:29:32:48:30:73:b4:04:f6:42:1e:be:f7:e2:
                    32:32:27:3c:9d:89:2f:70:3e:85:9a:6f:5c:c5:09:
                    c0:8c:32:2f:72:22:c9:d2:95:1f:b6:ac:72:60:72:
                    b7:82:4d:6b:ce:5b:e3:00:d0:d2:2f:58:c6:e0:10:
                    e5:51:ca:4d:3b:2e:e6:7e:ab:84:d6:56:f1:93:35:
                    a0:93:64:26:81:75:2f:91:b5:16:06:38:0b:db:cc:
                    2d:07
                Exponent: 65537 (0x10001)
        X509v3 extensions:
            X509v3 Key Usage: 
                Digital Signature, Key Encipherment
            X509v3 Basic Constraints: 
                CA:FALSE
            Netscape Cert Type: 
                SSL Server
            Netscape Comment: 
                OpenSSL Generated Server Certificate
            X509v3 Subject Key Identifier: 
                FC:14:D1:F0:4B:8D:00:90:F2:F5:B8:71:9E:4E:97:C3:92:54:AD:0B
            X509v3 Authority Key Identifier: 
                keyid:F4:A7:C0:CC:91:46:AF:64:F3:91:F2:27:F8:C8:B2:6F:8A:87:32:73
                DirName:/C=DE/ST=Hessen/O=privacyidea/CN=CA001
                serial:FB:C8:EB:AC:83:CD:12:07

            X509v3 Extended Key Usage: 
                TLS Web Server Authentication
    Signature Algorithm: sha1WithRSAEncryption
         a3:4f:74:1a:19:9c:03:51:9d:c8:67:2a:0a:e2:27:2d:26:76:
         83:60:da:0a:0e:c3:88:91:e8:85:73:4f:91:5f:24:58:64:c9:
         0d:f1:9a:dc:e8:a7:9f:03:bf:63:3e:8d:91:ae:b7:5d:7c:3d:
         00:f9:93:11:67:70:29:d1:5f:d4:b9:e8:14:62:85:af:82:52:
         71:1e:7d:31:4d:9e:81:3a:22:cc:99:6f:35:ae:a3:6e:79:28:
         22:34:99:d0:36:09:d4:54:d8:cb:fb:1f:b0:a5:0b:1e:b0:ed:
         38:e3:e0:60:5c:69:83:ad:0a:14:67:55:f0:2e:d8:bf:56:62:
         5e:e0:da:c9:54:04:d3:60:97:29:2c:db:5f:0d:cd:54:7a:ff:
         0b:47:f8:d9:44:55:5d:19:86:83:59:08:2d:84:68:52:82:c1:
         53:a6:ff:aa:0f:2f:04:f4:db:18:aa:eb:df:40:ad:d0:a4:75:
         93:34:74:8c:00:cb:73:23:73:d7:d0:ab:89:ee:85:db:ed:7c:
         19:39:40:6f:56:f8:08:1b:62:2d:77:c1:04:18:73:f3:0e:9f:
         73:16:2a:41:8c:dd:ae:9f:5f:7c:0c:90:bc:2c:87:ed:e5:4e:
         8a:92:44:c9:86:2c:ca:dd:6a:15:ca:f6:fd:e2:f6:ae:7f:9c:
         57:29:5f:f5
-----BEGIN CERTIFICATE-----
MIIEGTCCAwGgAwIBAgIEEAAAyzANBgkqhkiG9w0BAQUFADBEMQswCQYDVQQGEwJE
RTEPMA0GA1UECAwGSGVzc2VuMRQwEgYDVQQKDAtwcml2YWN5aWRlYTEOMAwGA1UE
AwwFQ0EwMDEwHhcNMTYxMTA3MTU1MjUyWhcNMTcxMTA3MTU1MjUyWjBHMQswCQYD
VQQGEwJERTEPMA0GA1UECAwGSGVzc2VuMRQwEgYDVQQKDAtwcml2YWN5aWRlYTER
MA8GA1UEAwwIdXNlcmNlcnQwggEiMA0GCSqGSIb3DQEBAQUAA4IBDwAwggEKAoIB
AQDcL9FfKZfUfMNTyDC9S2dwLCRruF7rIXpIElZ8gVxIdbZo6/bymE5QUdF/bHPz
Cqeuvkhe5dbh2Sp8Mm5O/Qj2WlRJI3PDuQcY0e+zrPiK3JSWpJA6jnTf5g03G71b
tyUaVjnab5GqXhx08/l8FAGDEmV2x7v+NluV6XJlg+0+mDBx+ofdozZaMAMuJuBh
0b8CP7YGH0qJKBxcov9OvpTmjODagvGdKTJIMHO0BPZCHr734jIyJzydiS9wPoWa
b1zFCcCMMi9yIsnSlR+2rHJgcreCTWvOW+MA0NIvWMbgEOVRyk07LuZ+q4TWVvGT
NaCTZCaBdS+RtRYGOAvbzC0HAgMBAAGjggEOMIIBCjALBgNVHQ8EBAMCBaAwCQYD
VR0TBAIwADARBglghkgBhvhCAQEEBAMCBkAwMwYJYIZIAYb4QgENBCYWJE9wZW5T
U0wgR2VuZXJhdGVkIFNlcnZlciBDZXJ0aWZpY2F0ZTAdBgNVHQ4EFgQU/BTR8EuN
AJDy9bhxnk6Xw5JUrQswdAYDVR0jBG0wa4AU9KfAzJFGr2TzkfIn+Miyb4qHMnOh
SKRGMEQxCzAJBgNVBAYTAkRFMQ8wDQYDVQQIDAZIZXNzZW4xFDASBgNVBAoMC3By
aXZhY3lpZGVhMQ4wDAYDVQQDDAVDQTAwMYIJAPvI66yDzRIHMBMGA1UdJQQMMAoG
CCsGAQUFBwMBMA0GCSqGSIb3DQEBBQUAA4IBAQCjT3QaGZwDUZ3IZyoK4ictJnaD
YNoKDsOIkeiFc0+RXyRYZMkN8Zrc6KefA79jPo2RrrddfD0A+ZMRZ3Ap0V/UuegU
YoWvglJxHn0xTZ6BOiLMmW81rqNueSgiNJnQNgnUVNjL+x+wpQsesO044+BgXGmD
rQoUZ1XwLti/VmJe4NrJVATTYJcpLNtfDc1Uev8LR/jZRFVdGYaDWQgthGhSgsFT
pv+qDy8E9NsYquvfQK3QpHWTNHSMAMtzI3PX0KuJ7oXb7XwZOUBvVvgIG2Itd8EE
GHPzDp9zFipBjN2un198DJC8LIft5U6KkkTJhizK3WoVyvb94vauf5xXKV/1
-----END CERTIFICATE-----
