Certificate:
    Data:
        Version: 3 (0x2)
        Serial Number: 268435673 (0x100000d9)
    Signature Algorithm: sha1WithRSAEncryption
        Issuer: C=DE, ST=Hessen, O=privacyidea, CN=CA001
        Validity
            Not Before: Sep 30 15:39:20 2016 GMT
            Not After : Sep 30 15:39:20 2017 GMT
        Subject: OU=realm1, CN=cornelius/emailAddress=user@localhost.localdomain
        Subject Public Key Info:
            Public Key Algorithm: rsaEncryption
                Public-Key: (2048 bit)
                Modulus:
                    00:cd:8d:94:95:29:ec:aa:05:bd:dd:1e:96:74:24:
                    68:c2:48:81:d8:19:0e:5d:c1:4a:37:7a:9b:e7:6a:
                    d3:97:29:a5:81:21:99:ba:79:fd:5d:08:1e:9c:0e:
                    27:88:6b:c2:97:62:ef:e7:10:f2:0d:c5:e2:45:db:
                    36:5f:27:c4:d4:a4:f9:10:9c:49:52:a7:df:01:c6:
                    78:bd:b1:e1:91:fb:db:4b:07:11:5f:35:53:9d:87:
                    4f:e5:bf:b8:9f:49:43:df:38:10:03:9c:29:1d:1c:
                    1b:2c:55:3a:5a:da:21:ef:e0:60:0a:72:f5:52:a3:
                    a0:2b:6c:72:27:03:d1:a2:8a:c0:f8:91:e2:e4:8a:
                    09:92:bb:e9:85:2e:33:f8:25:0a:14:da:94:52:a5:
                    cc:7a:fc:3c:33:4a:91:78:97:94:16:f3:24:1e:94:
                    3e:4e:36:08:98:65:5c:d6:16:6a:20:f6:02:eb:a5:
                    f0:bb:7d:3a:10:6c:ee:4c:f4:32:43:14:97:e6:33:
                    0a:2c:1d:b9:57:30:ef:43:f6:a9:d8:ce:fc:43:e7:
                    ce:93:16:5a:a9:d6:ab:5f:08:e2:e2:a8:99:56:36:
                    28:ee:23:e4:95:3d:b0:9d:ff:62:a4:35:f3:b7:93:
                    18:a8:df:a4:78:5e:ed:2f:fe:a8:c8:bf:77:4a:fa:
                    f6:bf
                Exponent: 65537 (0x10001)
        X509v3 extensions:
            X509v3 Key Usage: 
                Digital Signature, Key Encipherment
            X509v3 Basic Constraints: 
                CA:FALSE
            Netscape Cert Type: 
                SSL Server
            Netscape Comment: 
                OpenSSL Generated Server Certificate
            X509v3 Subject Key Identifier: 
                D4:E6:9B:57:DE:06:AC:DF:EE:10:18:6E:6F:94:F1:28:7A:A3:09:69
            X509v3 Authority Key Identifier: 
                keyid:F4:A7:C0:CC:91:46:AF:64:F3:91:F2:27:F8:C8:B2:6F:8A:87:32:73
                DirName:/C=DE/ST=Hessen/O=privacyidea/CN=CA001
                serial:FB:C8:EB:AC:83:CD:12:07

            X509v3 Extended Key Usage: 
                TLS Web Server Authentication
    Signature Algorithm: sha1WithRSAEncryption
         20:91:dd:ee:a9:52:33:f4:8d:41:2c:27:92:ef:ed:07:58:5d:
         ad:b5:65:61:21:2e:23:c8:a9:ff:ce:51:90:e2:b0:9e:83:19:
         59:7b:6e:82:00:e6:8f:b4:b9:21:f7:61:a2:ce:1b:4f:b1:00:
         05:39:84:96:f1:31:33:0d:be:85:4c:06:81:81:aa:dd:15:40:
         7a:2b:6a:0d:26:97:7a:8f:d9:fa:27:42:cb:3d:9f:b9:07:2a:
         8a:ac:48:31:ab:fc:20:60:da:d5:29:99:0d:8e:fe:ee:ae:e6:
         4e:43:a5:47:32:4b:bf:0d:f8:0b:9c:3b:97:67:17:2e:c9:53:
         eb:d1:ce:2a:99:7a:5c:2b:8d:99:9a:fb:78:d9:7a:95:e4:34:
         4a:c6:4e:3a:90:af:8d:f7:ec:44:84:62:ce:be:1b:82:e6:9a:
         bf:ed:e0:b5:fd:54:64:43:12:c4:4b:47:b3:83:f7:82:36:b2:
         3c:30:b1:9e:e0:f1:79:71:6f:fe:1e:46:c1:0f:a8:da:fc:9b:
         ba:a2:4d:70:94:bb:06:85:27:7b:b5:18:23:8f:1e:d4:34:7c:
         0c:d3:95:03:b5:7a:67:59:72:62:ab:1e:58:c7:2c:a7:c4:49:
         db:ba:c8:80:b0:4d:74:18:ee:8c:d5:8b:fd:4b:0d:68:6c:af:
         97:96:4e:08
-----BEGIN CERTIFICATE-----
MIIEIjCCAwqgAwIBAgIEEAAA2TANBgkqhkiG9w0BAQUFADBEMQswCQYDVQQGEwJE
RTEPMA0GA1UECAwGSGVzc2VuMRQwEgYDVQQKDAtwcml2YWN5aWRlYTEOMAwGA1UE
AwwFQ0EwMDEwHhcNMTYwOTMwMTUzOTIwWhcNMTcwOTMwMTUzOTIwWjBQMQ8wDQYD
VQQLDAZyZWFsbTExEjAQBgNVBAMMCWNvcm5lbGl1czEpMCcGCSqGSIb3DQEJARYa
dXNlckBsb2NhbGhvc3QubG9jYWxkb21haW4wggEiMA0GCSqGSIb3DQEBAQUAA4IB
DwAwggEKAoIBAQDNjZSVKeyqBb3dHpZ0JGjCSIHYGQ5dwUo3epvnatOXKaWBIZm6
ef1dCB6cDieIa8KXYu/nEPINxeJF2zZfJ8TUpPkQnElSp98Bxni9seGR+9tLBxFf
NVOdh0/lv7ifSUPfOBADnCkdHBssVTpa2iHv4GAKcvVSo6ArbHInA9GiisD4keLk
igmSu+mFLjP4JQoU2pRSpcx6/DwzSpF4l5QW8yQelD5ONgiYZVzWFmog9gLrpfC7
fToQbO5M9DJDFJfmMwosHblXMO9D9qnYzvxD586TFlqp1qtfCOLiqJlWNijuI+SV
PbCd/2KkNfO3kxio36R4Xu0v/qjIv3dK+va/AgMBAAGjggEOMIIBCjALBgNVHQ8E
BAMCBaAwCQYDVR0TBAIwADARBglghkgBhvhCAQEEBAMCBkAwMwYJYIZIAYb4QgEN
BCYWJE9wZW5TU0wgR2VuZXJhdGVkIFNlcnZlciBDZXJ0aWZpY2F0ZTAdBgNVHQ4E
FgQU1OabV94GrN/uEBhub5TxKHqjCWkwdAYDVR0jBG0wa4AU9KfAzJFGr2TzkfIn
+Miyb4qHMnOhSKRGMEQxCzAJBgNVBAYTAkRFMQ8wDQYDVQQIDAZIZXNzZW4xFDAS
BgNVBAoMC3ByaXZhY3lpZGVhMQ4wDAYDVQQDDAVDQTAwMYIJAPvI66yDzRIHMBMG
A1UdJQQMMAoGCCsGAQUFBwMBMA0GCSqGSIb3DQEBBQUAA4IBAQAgkd3uqVIz9I1B
LCeS7+0HWF2ttWVhIS4jyKn/zlGQ4rCegxlZe26CAOaPtLkh92GizhtPsQAFOYSW
8TEzDb6FTAaBgardFUB6K2oNJpd6j9n6J0LLPZ+5ByqKrEgxq/wgYNrVKZkNjv7u
ruZOQ6VHMku/DfgLnDuXZxcuyVPr0c4qmXpcK42Zmvt42XqV5DRKxk46kK+N9+xE
hGLOvhuC5pq/7eC1/VRkQxLES0ezg/eCNrI8MLGe4PF5cW/+HkbBD6ja/Ju6ok1w
lLsGhSd7tRgjjx7UNHwM05UDtXpnWXJiqx5YxyynxEnbusiAsE10GO6M1Yv9Sw1o
bK+Xlk4I
-----END CERTIFICATE-----
