Certificate:
    Data:
        Version: 3 (0x2)
        Serial Number: 268435663 (0x100000cf)
    Signature Algorithm: sha1WithRSAEncryption
        Issuer: C=DE, ST=Hessen, O=privacyidea, CN=CA001
        Validity
            Not Before: Nov  7 16:05:32 2016 GMT
            Not After : Nov  7 16:05:32 2017 GMT
        Subject: CN=selfservice,CN=user,O=realm1/emailAddress=meine
        Subject Public Key Info:
            Public Key Algorithm: rsaEncryption
                Public-Key: (2048 bit)
                Modulus:
                    00:cf:3c:d4:33:0e:12:c4:e6:da:cd:b6:56:a1:1c:
                    26:bb:26:1c:8a:4a:73:a8:58:8a:b6:1e:b3:8b:99:
                    d2:1d:07:c2:92:89:79:c0:69:d8:c8:df:28:61:98:
                    1e:b3:fe:ae:2b:bd:78:a9:f7:6e:47:dc:a3:a0:16:
                    8c:85:02:c1:4e:92:fd:72:6e:f0:c8:03:29:9b:b8:
                    00:6e:c0:83:95:c8:34:20:36:9c:b3:e5:e4:e6:76:
                    73:a3:1a:ad:40:96:e0:53:54:00:ec:76:79:9a:c6:
                    0d:7e:b6:bd:29:ec:83:f3:cb:89:a4:cb:6c:00:ba:
                    0c:c5:78:0f:ff:69:b8:94:f4:04:70:43:3f:d8:9e:
                    d7:a7:fb:5d:ce:75:8e:da:e7:c4:07:b1:9d:de:6f:
                    88:4b:b6:4d:9a:cf:f9:bc:fa:9f:cd:32:6d:f6:3a:
                    0b:0d:23:42:78:ec:97:42:bf:0e:4d:60:56:e1:d3:
                    02:f2:19:cb:84:57:90:e5:70:a1:a2:83:35:86:e2:
                    da:86:9f:f9:8a:c4:79:b3:52:28:da:cb:bb:34:ca:
                    d3:da:91:4a:cf:8d:76:a2:b2:6b:9b:f9:96:fd:09:
                    2a:da:11:23:4d:f0:cb:d6:b2:b1:0e:12:6c:9a:19:
                    65:98:87:ca:e4:ee:24:ce:44:ac:90:8f:9d:1b:c5:
                    2a:9d
                Exponent: 65537 (0x10001)
        X509v3 extensions:
            X509v3 Key Usage: 
                Digital Signature, Key Encipherment
            X509v3 Basic Constraints: 
                CA:FALSE
            Netscape Cert Type: 
                SSL Server
            Netscape Comment: 
                OpenSSL Generated Server Certificate
            X509v3 Subject Key Identifier: 
                4D:07:90:AD:FF:1D:0D:E7:1A:DD:D6:2E:FA:BA:34:CB:AA:1F:24:C6
            X509v3 Authority Key Identifier: 
                keyid:F4:A7:C0:CC:91:46:AF:64:F3:91:F2:27:F8:C8:B2:6F:8A:87:32:73
                DirName:/C=DE/ST=Hessen/O=privacyidea/CN=CA001
                serial:FB:C8:EB:AC:83:CD:12:07

            X509v3 Extended Key Usage: 
                TLS Web Server Authentication
    Signature Algorithm: sha1WithRSAEncryption
         5f:1e:8f:b2:ee:f3:4e:7b:0c:30:f5:c4:cc:30:02:99:b6:95:
         73:d4:49:ff:29:a0:ac:8b:cd:1d:4d:3f:6e:57:8b:09:56:78:
         74:d8:79:29:7f:0e:63:05:e5:57:a3:a3:9b:32:9a:07:c5:b8:
         ae:4f:f9:90:f2:d5:65:6f:b4:16:0b:37:23:18:d6:96:ed:39:
         88:7f:c2:e4:3a:6c:13:b0:79:0e:fb:e9:04:2e:ca:3a:57:60:
         08:09:b1:58:1d:d6:a5:b8:16:0e:dd:1f:92:8d:13:4f:67:a8:
         ab:10:7e:9d:69:3a:99:f8:d1:1f:40:b3:22:46:8e:9e:d4:4a:
         b8:29:9e:54:31:bf:0d:22:ff:99:25:78:e4:a9:8a:2f:31:25:
         ea:55:da:41:23:c5:6d:21:59:0f:ad:8b:03:df:3c:2d:a3:41:
         57:15:1a:0c:de:f0:78:9d:a0:02:66:25:a1:da:f1:2e:9e:69:
         f9:d1:fb:ab:86:0d:c2:03:32:fc:08:88:92:c4:48:4b:43:bb:
         9b:3b:ff:de:27:6c:9f:27:64:c3:29:46:15:03:53:d1:72:76:
         6b:ed:1f:75:35:f1:a9:b9:9e:9d:74:78:62:f3:c2:09:7b:6b:
         c5:4c:01:18:d5:41:77:0d:d0:70:ae:fb:83:2a:3a:0b:11:eb:
         d3:1a:1b:f8
-----BEGIN CERTIFICATE-----
MIIEDzCCAvegAwIBAgIEEAAAzzANBgkqhkiG9w0BAQUFADBEMQswCQYDVQQGEwJE
RTEPMA0GA1UECAwGSGVzc2VuMRQwEgYDVQQKDAtwcml2YWN5aWRlYTEOMAwGA1UE
AwwFQ0EwMDEwHhcNMTYxMTA3MTYwNTMyWhcNMTcxMTA3MTYwNTMyWjA9MSUwIwYD
VQQDDBxzZWxmc2VydmljZSxDTj11c2VyLE89cmVhbG0xMRQwEgYJKoZIhvcNAQkB
FgVtZWluZTCCASIwDQYJKoZIhvcNAQEBBQADggEPADCCAQoCggEBAM881DMOEsTm
2s22VqEcJrsmHIpKc6hYirYes4uZ0h0HwpKJecBp2MjfKGGYHrP+riu9eKn3bkfc
o6AWjIUCwU6S/XJu8MgDKZu4AG7Ag5XINCA2nLPl5OZ2c6MarUCW4FNUAOx2eZrG
DX62vSnsg/PLiaTLbAC6DMV4D/9puJT0BHBDP9ie16f7Xc51jtrnxAexnd5viEu2
TZrP+bz6n80ybfY6Cw0jQnjsl0K/Dk1gVuHTAvIZy4RXkOVwoaKDNYbi2oaf+YrE
ebNSKNrLuzTK09qRSs+NdqKya5v5lv0JKtoRI03wy9aysQ4SbJoZZZiHyuTuJM5E
rJCPnRvFKp0CAwEAAaOCAQ4wggEKMAsGA1UdDwQEAwIFoDAJBgNVHRMEAjAAMBEG
CWCGSAGG+EIBAQQEAwIGQDAzBglghkgBhvhCAQ0EJhYkT3BlblNTTCBHZW5lcmF0
ZWQgU2VydmVyIENlcnRpZmljYXRlMB0GA1UdDgQWBBRNB5Ct/x0N5xrd1i76ujTL
qh8kxjB0BgNVHSMEbTBrgBT0p8DMkUavZPOR8if4yLJviocyc6FIpEYwRDELMAkG
A1UEBhMCREUxDzANBgNVBAgMBkhlc3NlbjEUMBIGA1UECgwLcHJpdmFjeWlkZWEx
DjAMBgNVBAMMBUNBMDAxggkA+8jrrIPNEgcwEwYDVR0lBAwwCgYIKwYBBQUHAwEw
DQYJKoZIhvcNAQEFBQADggEBAF8ej7Lu8057DDD1xMwwApm2lXPUSf8poKyLzR1N
P25XiwlWeHTYeSl/DmMF5Vejo5symgfFuK5P+ZDy1WVvtBYLNyMY1pbtOYh/wuQ6
bBOweQ776QQuyjpXYAgJsVgd1qW4Fg7dH5KNE09nqKsQfp1pOpn40R9AsyJGjp7U
SrgpnlQxvw0i/5kleOSpii8xJepV2kEjxW0hWQ+tiwPfPC2jQVcVGgze8HidoAJm
JaHa8S6eafnR+6uGDcIDMvwIiJLESEtDu5s7/94nbJ8nZMMpRhUDU9FydmvtH3U1
8am5np10eGLzwgl7a8VMARjVQXcN0HCu+4MqOgsR69MaG/g=
-----END CERTIFICATE-----
