Certificate:
    Data:
        Version: 3 (0x2)
        Serial Number: 268435658 (0x100000ca)
    Signature Algorithm: sha1WithRSAEncryption
        Issuer: C=DE, ST=Hessen, O=privacyidea, CN=CA001
        Validity
            Not Before: Nov  7 15:52:51 2016 GMT
            Not After : Nov  7 15:52:51 2017 GMT
        Subject: C=DE, ST=Hessen, O=privacyidea, CN=requester.localdomain
        Subject Public Key Info:
            Public Key Algorithm: rsaEncryption
                Public-Key: (2048 bit)
                Modulus:
                    00:cd:be:14:4f:fa:ce:01:3f:42:22:1b:1d:9c:af:
                    dd:92:d2:7f:db:6c:b7:3e:39:43:43:6b:13:03:f1:
                    05:f4:07:74:bc:76:69:28:0b:af:19:8e:d7:fc:e3:
                    cd:c6:58:f2:ca:7f:08:6d:53:fc:07:02:44:24:c6:
                    b4:34:4c:8c:04:fe:33:0e:40:e2:20:ba:02:73:5a:
                    f7:f5:4f:63:6e:cc:c6:b6:df:54:1d:37:39:7d:51:
                    36:26:5f:bd:dc:3f:a8:8b:6b:a2:ae:b6:9d:d6:21:
                    e7:df:41:b8:7a:28:2a:68:48:ca:a8:2d:ed:e1:e9:
                    46:5e:5a:72:6d:b4:84:38:87:91:fd:94:11:0b:28:
                    84:c6:c2:2f:2a:fb:01:f9:36:7a:09:75:d1:33:88:
                    3c:73:41:5b:c8:bf:94:89:70:a1:f0:c0:b9:2e:50:
                    53:1e:b1:17:64:69:f4:2d:81:e0:a9:0d:0e:32:e9:
                    ba:55:8a:85:f1:1b:6f:49:79:b4:7f:88:c3:0d:3e:
                    54:88:9b:3d:1f:38:8c:04:f3:ee:6a:63:2b:f5:c6:
                    db:b4:83:aa:c4:78:41:3a:7d:4b:e1:c8:3e:71:ca:
                    1b:61:59:ea:c6:c4:ca:32:5e:c9:e9:bf:12:29:e6:
                    c6:c3:63:fe:a0:55:da:7a:f1:60:98:4d:26:ed:fa:
                    70:2d
                Exponent: 65537 (0x10001)
        X509v3 extensions:
            X509v3 Key Usage: 
                Digital Signature, Key Encipherment
            X509v3 Basic Constraints: 
                CA:FALSE
            Netscape Cert Type: 
                SSL Server
            Netscape Comment: 
                OpenSSL Generated Server Certificate
            X509v3 Subject Key Identifier: 
                53:3F:ED:5D:09:07:B3:65:7B:AB:45:C9:24:5B:09:77:80:0A:96:ED
            X509v3 Authority Key Identifier: 
                keyid:F4:A7:C0:CC:91:46:AF:64:F3:91:F2:27:F8:C8:B2:6F:8A:87:32:73
                DirName:/C=DE/ST=Hessen/O=privacyidea/CN=CA001
                serial:FB:C8:EB:AC:83:CD:12:07

            X509v3 Extended Key Usage: 
                TLS Web Server Authentication
    Signature Algorithm: sha1WithRSAEncryption
         25:63:c2:2e:36:63:b6:a9:86:43:14:55:ed:76:7f:74:04:67:
         53:44:16:66:a6:a7:05:f8:b4:61:7d:af:43:c4:9c:14:9e:4f:
         dc:fc:72:9b:ff:3c:f7:e1:75:12:8b:78:11:05:45:78:9e:88:
         d4:b2:7f:e1:8a:72:b6:dd:95:91:f5:38:90:fc:9e:20:a1:be:
         a0:b1:7e:7a:08:1c:5b:b2:93:4f:70:91:f7:6d:ed:5e:90:d7:
         31:e0:4b:e1:e6:04:60:11:2b:cd:fd:ea:77:43:48:b4:72:ac:
         a3:f5:bb:e6:69:ed:da:68:2f:38:38:57:ab:41:19:bb:63:65:
         ea:d0:3a:20:c7:a6:ca:6d:25:97:19:d5:52:ce:91:d4:bf:23:
         5f:f8:53:25:62:02:a8:94:ed:19:ba:44:c9:98:ec:e2:ee:2e:
         42:67:56:fb:75:79:30:64:e4:01:9d:f6:ec:87:df:d8:b8:56:
         27:c0:6b:20:49:7b:2c:f0:25:4f:a5:4f:03:ad:fa:4e:28:a9:
         3d:39:51:c0:bf:c5:20:6e:a8:d0:15:a0:90:21:80:77:53:b4:
         d8:c4:15:36:99:99:b8:b5:02:0f:c4:b5:89:c7:38:39:fb:06:
         b9:2a:70:17:82:d9:ce:93:bf:38:7b:9f:84:d6:1f:0e:1a:5c:
         f5:1b:d5:9b
-----BEGIN CERTIFICATE-----
MIIEJjCCAw6gAwIBAgIEEAAAyjANBgkqhkiG9w0BAQUFADBEMQswCQYDVQQGEwJE
RTEPMA0GA1UECAwGSGVzc2VuMRQwEgYDVQQKDAtwcml2YWN5aWRlYTEOMAwGA1UE
AwwFQ0EwMDEwHhcNMTYxMTA3MTU1MjUxWhcNMTcxMTA3MTU1MjUxWjBUMQswCQYD
VQQGEwJERTEPMA0GA1UECAwGSGVzc2VuMRQwEgYDVQQKDAtwcml2YWN5aWRlYTEe
MBwGA1UEAwwVcmVxdWVzdGVyLmxvY2FsZG9tYWluMIIBIjANBgkqhkiG9w0BAQEF
AAOCAQ8AMIIBCgKCAQEAzb4UT/rOAT9CIhsdnK/dktJ/22y3PjlDQ2sTA/EF9Ad0
vHZpKAuvGY7X/OPNxljyyn8IbVP8BwJEJMa0NEyMBP4zDkDiILoCc1r39U9jbszG
tt9UHTc5fVE2Jl+93D+oi2uirrad1iHn30G4eigqaEjKqC3t4elGXlpybbSEOIeR
/ZQRCyiExsIvKvsB+TZ6CXXRM4g8c0FbyL+UiXCh8MC5LlBTHrEXZGn0LYHgqQ0O
Mum6VYqF8RtvSXm0f4jDDT5UiJs9HziMBPPuamMr9cbbtIOqxHhBOn1L4cg+ccob
YVnqxsTKMl7J6b8SKebGw2P+oFXaevFgmE0m7fpwLQIDAQABo4IBDjCCAQowCwYD
VR0PBAQDAgWgMAkGA1UdEwQCMAAwEQYJYIZIAYb4QgEBBAQDAgZAMDMGCWCGSAGG
+EIBDQQmFiRPcGVuU1NMIEdlbmVyYXRlZCBTZXJ2ZXIgQ2VydGlmaWNhdGUwHQYD
VR0OBBYEFFM/7V0JB7Nle6tFySRbCXeACpbtMHQGA1UdIwRtMGuAFPSnwMyRRq9k
85HyJ/jIsm+KhzJzoUikRjBEMQswCQYDVQQGEwJERTEPMA0GA1UECAwGSGVzc2Vu
MRQwEgYDVQQKDAtwcml2YWN5aWRlYTEOMAwGA1UEAwwFQ0EwMDGCCQD7yOusg80S
BzATBgNVHSUEDDAKBggrBgEFBQcDATANBgkqhkiG9w0BAQUFAAOCAQEAJWPCLjZj
tqmGQxRV7XZ/dARnU0QWZqanBfi0YX2vQ8ScFJ5P3Pxym/889+F1Eot4EQVFeJ6I
1LJ/4Ypytt2VkfU4kPyeIKG+oLF+eggcW7KTT3CR923tXpDXMeBL4eYEYBErzf3q
d0NItHKso/W75mnt2mgvODhXq0EZu2Nl6tA6IMemym0llxnVUs6R1L8jX/hTJWIC
qJTtGbpEyZjs4u4uQmdW+3V5MGTkAZ327Iff2LhWJ8BrIEl7LPAlT6VPA636Tiip
PTlRwL/FIG6o0BWgkCGAd1O02MQVNpmZuLUCD8S1icc4OfsGuSpwF4LZzpO/OHuf
hNYfDhpc9RvVmw==
-----END CERTIFICATE-----
