Certificate:
    Data:
        Version: 3 (0x2)
        Serial Number: 268435670 (0x100000d6)
    Signature Algorithm: sha1WithRSAEncryption
        Issuer: C=DE, ST=Hessen, O=privacyidea, CN=CA001
        Validity
            Not Before: Oct 24 15:58:24 2016 GMT
            Not After : Oct 24 15:58:24 2017 GMT
        Subject: CN=selfservice,CN=user,O=realm1/emailAddress=meine
        Subject Public Key Info:
            Public Key Algorithm: rsaEncryption
                Public-Key: (2048 bit)
                Modulus:
                    00:cf:3c:d4:33:0e:12:c4:e6:da:cd:b6:56:a1:1c:
                    26:bb:26:1c:8a:4a:73:a8:58:8a:b6:1e:b3:8b:99:
                    d2:1d:07:c2:92:89:79:c0:69:d8:c8:df:28:61:98:
                    1e:b3:fe:ae:2b:bd:78:a9:f7:6e:47:dc:a3:a0:16:
                    8c:85:02:c1:4e:92:fd:72:6e:f0:c8:03:29:9b:b8:
                    00:6e:c0:83:95:c8:34:20:36:9c:b3:e5:e4:e6:76:
                    73:a3:1a:ad:40:96:e0:53:54:00:ec:76:79:9a:c6:
                    0d:7e:b6:bd:29:ec:83:f3:cb:89:a4:cb:6c:00:ba:
                    0c:c5:78:0f:ff:69:b8:94:f4:04:70:43:3f:d8:9e:
                    d7:a7:fb:5d:ce:75:8e:da:e7:c4:07:b1:9d:de:6f:
                    88:4b:b6:4d:9a:cf:f9:bc:fa:9f:cd:32:6d:f6:3a:
                    0b:0d:23:42:78:ec:97:42:bf:0e:4d:60:56:e1:d3:
                    02:f2:19:cb:84:57:90:e5:70:a1:a2:83:35:86:e2:
                    da:86:9f:f9:8a:c4:79:b3:52:28:da:cb:bb:34:ca:
                    d3:da:91:4a:cf:8d:76:a2:b2:6b:9b:f9:96:fd:09:
                    2a:da:11:23:4d:f0:cb:d6:b2:b1:0e:12:6c:9a:19:
                    65:98:87:ca:e4:ee:24:ce:44:ac:90:8f:9d:1b:c5:
                    2a:9d
                Exponent: 65537 (0x10001)
        X509v3 extensions:
            X509v3 Key Usage: 
                Digital Signature, Key Encipherment
            X509v3 Basic Constraints: 
                CA:FALSE
            Netscape Cert Type: 
                SSL Server
            Netscape Comment: 
                OpenSSL Generated Server Certificate
            X509v3 Subject Key Identifier: 
                4D:07:90:AD:FF:1D:0D:E7:1A:DD:D6:2E:FA:BA:34:CB:AA:1F:24:C6
            X509v3 Authority Key Identifier: 
                keyid:F4:A7:C0:CC:91:46:AF:64:F3:91:F2:27:F8:C8:B2:6F:8A:87:32:73
                DirName:/C=DE/ST=Hessen/O=privacyidea/CN=CA001
                serial:FB:C8:EB:AC:83:CD:12:07

            X509v3 Extended Key Usage: 
                TLS Web Server Authentication
    Signature Algorithm: sha1WithRSAEncryption
         7b:6b:bc:9e:df:d8:0c:77:c0:46:f9:c0:87:f8:d9:1c:4d:54:
         06:7e:ca:bb:fd:07:3a:5f:37:73:b0:e7:df:ae:40:f0:87:39:
         82:35:3c:62:b0:76:62:19:73:a2:31:01:ea:d9:91:13:6c:ea:
         6f:03:ef:93:13:9b:d9:fe:7c:81:36:aa:50:5f:d2:ce:52:95:
         a8:a2:13:31:5f:9e:d6:eb:e3:84:18:1f:d7:07:91:3a:81:7c:
         b3:8a:c5:79:65:8b:92:b9:51:7f:a8:57:e0:3b:39:c6:ea:8a:
         86:a8:be:74:96:81:05:3a:71:3a:84:9b:6c:e2:6e:69:32:0e:
         0e:e4:f9:cf:67:ba:cc:85:5b:4f:75:e5:b7:65:5a:b3:57:36:
         b4:a7:a7:12:eb:43:43:ab:b5:8d:b8:c7:29:0f:de:ae:f2:74:
         0c:6b:f6:12:92:fc:41:c2:ea:71:3c:33:75:60:32:e1:5e:ee:
         b5:d7:a1:46:88:f3:38:ab:51:3b:5a:f5:77:c2:f0:25:dd:55:
         d6:ee:67:41:87:ad:a6:89:d9:ee:6d:08:fc:2c:b1:b9:1f:d6:
         cc:81:37:c0:2f:b5:d1:a5:a3:0d:30:e5:f2:63:db:c4:36:9b:
         c2:9a:58:e2:af:b3:be:fa:cc:46:af:68:39:df:07:f4:b7:14:
         29:21:c6:c0
-----BEGIN CERTIFICATE-----
MIIEDzCCAvegAwIBAgIEEAAA1jANBgkqhkiG9w0BAQUFADBEMQswCQYDVQQGEwJE
RTEPMA0GA1UECAwGSGVzc2VuMRQwEgYDVQQKDAtwcml2YWN5aWRlYTEOMAwGA1UE
AwwFQ0EwMDEwHhcNMTYxMDI0MTU1ODI0WhcNMTcxMDI0MTU1ODI0WjA9MSUwIwYD
VQQDDBxzZWxmc2VydmljZSxDTj11c2VyLE89cmVhbG0xMRQwEgYJKoZIhvcNAQkB
FgVtZWluZTCCASIwDQYJKoZIhvcNAQEBBQADggEPADCCAQoCggEBAM881DMOEsTm
2s22VqEcJrsmHIpKc6hYirYes4uZ0h0HwpKJecBp2MjfKGGYHrP+riu9eKn3bkfc
o6AWjIUCwU6S/XJu8MgDKZu4AG7Ag5XINCA2nLPl5OZ2c6MarUCW4FNUAOx2eZrG
DX62vSnsg/PLiaTLbAC6DMV4D/9puJT0BHBDP9ie16f7Xc51jtrnxAexnd5viEu2
TZrP+bz6n80ybfY6Cw0jQnjsl0K/Dk1gVuHTAvIZy4RXkOVwoaKDNYbi2oaf+YrE
ebNSKNrLuzTK09qRSs+NdqKya5v5lv0JKtoRI03wy9aysQ4SbJoZZZiHyuTuJM5E
rJCPnRvFKp0CAwEAAaOCAQ4wggEKMAsGA1UdDwQEAwIFoDAJBgNVHRMEAjAAMBEG
CWCGSAGG+EIBAQQEAwIGQDAzBglghkgBhvhCAQ0EJhYkT3BlblNTTCBHZW5lcmF0
ZWQgU2VydmVyIENlcnRpZmljYXRlMB0GA1UdDgQWBBRNB5Ct/x0N5xrd1i76ujTL
qh8kxjB0BgNVHSMEbTBrgBT0p8DMkUavZPOR8if4yLJviocyc6FIpEYwRDELMAkG
A1UEBhMCREUxDzANBgNVBAgMBkhlc3NlbjEUMBIGA1UECgwLcHJpdmFjeWlkZWEx
DjAMBgNVBAMMBUNBMDAxggkA+8jrrIPNEgcwEwYDVR0lBAwwCgYIKwYBBQUHAwEw
DQYJKoZIhvcNAQEFBQADggEBAHtrvJ7f2Ax3wEb5wIf42RxNVAZ+yrv9BzpfN3Ow
59+uQPCHOYI1PGKwdmIZc6IxAerZkRNs6m8D75MTm9n+fIE2qlBf0s5SlaiiEzFf
ntbr44QYH9cHkTqBfLOKxXlli5K5UX+oV+A7OcbqioaovnSWgQU6cTqEm2zibmky
Dg7k+c9nusyFW0915bdlWrNXNrSnpxLrQ0OrtY24xykP3q7ydAxr9hKS/EHC6nE8
M3VgMuFe7rXXoUaI8zirUTta9XfC8CXdVdbuZ0GHraaJ2e5tCPwssbkf1syBN8Av
tdGlow0w5fJj28Q2m8KaWOKvs776zEavaDnfB/S3FCkhxsA=
-----END CERTIFICATE-----
