Certificate:
    Data:
        Version: 3 (0x2)
        Serial Number: 268435664 (0x100000d0)
    Signature Algorithm: sha1WithRSAEncryption
        Issuer: C=DE, ST=Hessen, O=privacyidea, CN=CA001
        Validity
            Not Before: Oct 24 15:44:19 2016 GMT
            Not After : Oct 24 15:44:19 2017 GMT
        Subject: C=DE, ST=Hessen, O=privacyidea, CN=requester.localdomain
        Subject Public Key Info:
            Public Key Algorithm: rsaEncryption
                Public-Key: (2048 bit)
                Modulus:
                    00:cd:be:14:4f:fa:ce:01:3f:42:22:1b:1d:9c:af:
                    dd:92:d2:7f:db:6c:b7:3e:39:43:43:6b:13:03:f1:
                    05:f4:07:74:bc:76:69:28:0b:af:19:8e:d7:fc:e3:
                    cd:c6:58:f2:ca:7f:08:6d:53:fc:07:02:44:24:c6:
                    b4:34:4c:8c:04:fe:33:0e:40:e2:20:ba:02:73:5a:
                    f7:f5:4f:63:6e:cc:c6:b6:df:54:1d:37:39:7d:51:
                    36:26:5f:bd:dc:3f:a8:8b:6b:a2:ae:b6:9d:d6:21:
                    e7:df:41:b8:7a:28:2a:68:48:ca:a8:2d:ed:e1:e9:
                    46:5e:5a:72:6d:b4:84:38:87:91:fd:94:11:0b:28:
                    84:c6:c2:2f:2a:fb:01:f9:36:7a:09:75:d1:33:88:
                    3c:73:41:5b:c8:bf:94:89:70:a1:f0:c0:b9:2e:50:
                    53:1e:b1:17:64:69:f4:2d:81:e0:a9:0d:0e:32:e9:
                    ba:55:8a:85:f1:1b:6f:49:79:b4:7f:88:c3:0d:3e:
                    54:88:9b:3d:1f:38:8c:04:f3:ee:6a:63:2b:f5:c6:
                    db:b4:83:aa:c4:78:41:3a:7d:4b:e1:c8:3e:71:ca:
                    1b:61:59:ea:c6:c4:ca:32:5e:c9:e9:bf:12:29:e6:
                    c6:c3:63:fe:a0:55:da:7a:f1:60:98:4d:26:ed:fa:
                    70:2d
                Exponent: 65537 (0x10001)
        X509v3 extensions:
            X509v3 Key Usage: 
                Digital Signature, Key Encipherment
            X509v3 Basic Constraints: 
                CA:FALSE
            Netscape Cert Type: 
                SSL Server
            Netscape Comment: 
                OpenSSL Generated Server Certificate
            X509v3 Subject Key Identifier: 
                53:3F:ED:5D:09:07:B3:65:7B:AB:45:C9:24:5B:09:77:80:0A:96:ED
            X509v3 Authority Key Identifier: 
                keyid:F4:A7:C0:CC:91:46:AF:64:F3:91:F2:27:F8:C8:B2:6F:8A:87:32:73
                DirName:/C=DE/ST=Hessen/O=privacyidea/CN=CA001
                serial:FB:C8:EB:AC:83:CD:12:07

            X509v3 Extended Key Usage: 
                TLS Web Server Authentication
    Signature Algorithm: sha1WithRSAEncryption
         9e:e9:ba:a6:82:a7:b7:cc:72:7f:18:6a:51:26:22:3f:8c:f9:
         ed:58:88:0c:ba:ae:f3:f5:03:ad:b3:74:99:24:70:25:0a:b5:
         71:04:70:07:f3:d0:46:08:25:53:3f:aa:f4:c7:ee:2a:17:f3:
         98:d7:fd:e1:c9:e7:05:e2:1a:8d:bb:76:06:1d:61:fe:4f:b2:
         75:0a:c3:9f:7a:61:8a:c2:85:4a:57:6d:52:7d:72:8f:2a:da:
         da:ed:7b:b0:3a:6b:6a:92:5e:ab:6d:a5:0d:18:a8:f1:08:6d:
         93:1c:98:d5:f8:74:4a:e0:4d:ce:7c:09:03:79:91:e2:ce:0d:
         54:d0:b9:94:51:d7:0b:a1:00:56:86:19:7d:ec:29:f9:b1:a6:
         78:fb:20:a9:08:b9:e9:40:c2:99:74:d7:92:ad:73:2e:f7:9b:
         4b:52:42:a8:b3:06:e0:50:d7:f1:42:50:57:d0:b4:71:40:2e:
         c2:f5:8d:36:4b:a9:01:7c:9e:19:f6:3f:c6:5f:1f:2d:a3:15:
         d5:23:83:76:a1:27:8d:cd:2a:fc:b5:10:88:f9:48:62:1e:af:
         f1:14:b2:a1:1c:27:e4:91:bb:0b:ba:87:ea:2d:5e:10:c3:3f:
         b9:02:a9:e3:21:c0:a7:83:db:d7:26:3e:02:1f:d0:08:f4:c1:
         11:ec:07:4a
-----BEGIN CERTIFICATE-----
MIIEJjCCAw6gAwIBAgIEEAAA0DANBgkqhkiG9w0BAQUFADBEMQswCQYDVQQGEwJE
RTEPMA0GA1UECAwGSGVzc2VuMRQwEgYDVQQKDAtwcml2YWN5aWRlYTEOMAwGA1UE
AwwFQ0EwMDEwHhcNMTYxMDI0MTU0NDE5WhcNMTcxMDI0MTU0NDE5WjBUMQswCQYD
VQQGEwJERTEPMA0GA1UECAwGSGVzc2VuMRQwEgYDVQQKDAtwcml2YWN5aWRlYTEe
MBwGA1UEAwwVcmVxdWVzdGVyLmxvY2FsZG9tYWluMIIBIjANBgkqhkiG9w0BAQEF
AAOCAQ8AMIIBCgKCAQEAzb4UT/rOAT9CIhsdnK/dktJ/22y3PjlDQ2sTA/EF9Ad0
vHZpKAuvGY7X/OPNxljyyn8IbVP8BwJEJMa0NEyMBP4zDkDiILoCc1r39U9jbszG
tt9UHTc5fVE2Jl+93D+oi2uirrad1iHn30G4eigqaEjKqC3t4elGXlpybbSEOIeR
/ZQRCyiExsIvKvsB+TZ6CXXRM4g8c0FbyL+UiXCh8MC5LlBTHrEXZGn0LYHgqQ0O
Mum6VYqF8RtvSXm0f4jDDT5UiJs9HziMBPPuamMr9cbbtIOqxHhBOn1L4cg+ccob
YVnqxsTKMl7J6b8SKebGw2P+oFXaevFgmE0m7fpwLQIDAQABo4IBDjCCAQowCwYD
VR0PBAQDAgWgMAkGA1UdEwQCMAAwEQYJYIZIAYb4QgEBBAQDAgZAMDMGCWCGSAGG
+EIBDQQmFiRPcGVuU1NMIEdlbmVyYXRlZCBTZXJ2ZXIgQ2VydGlmaWNhdGUwHQYD
VR0OBBYEFFM/7V0JB7Nle6tFySRbCXeACpbtMHQGA1UdIwRtMGuAFPSnwMyRRq9k
85HyJ/jIsm+KhzJzoUikRjBEMQswCQYDVQQGEwJERTEPMA0GA1UECAwGSGVzc2Vu
MRQwEgYDVQQKDAtwcml2YWN5aWRlYTEOMAwGA1UEAwwFQ0EwMDGCCQD7yOusg80S
BzATBgNVHSUEDDAKBggrBgEFBQcDATANBgkqhkiG9w0BAQUFAAOCAQEAnum6poKn
t8xyfxhqUSYiP4z57ViIDLqu8/UDrbN0mSRwJQq1cQRwB/PQRgglUz+q9MfuKhfz
mNf94cnnBeIajbt2Bh1h/k+ydQrDn3phisKFSldtUn1yjyra2u17sDprapJeq22l
DRio8QhtkxyY1fh0SuBNznwJA3mR4s4NVNC5lFHXC6EAVoYZfewp+bGmePsgqQi5
6UDCmXTXkq1zLvebS1JCqLMG4FDX8UJQV9C0cUAuwvWNNkupAXyeGfY/xl8fLaMV
1SODdqEnjc0q/LUQiPlIYh6v8RSyoRwn5JG7C7qH6i1eEMM/uQKp4yHAp4Pb1yY+
Ah/QCPTBEewHSg==
-----END CERTIFICATE-----
