Certificate:
    Data:
        Version: 3 (0x2)
        Serial Number: 268435662 (0x100000ce)
    Signature Algorithm: sha1WithRSAEncryption
        Issuer: C=DE, ST=Hessen, O=privacyidea, CN=CA001
        Validity
            Not Before: Nov  7 15:56:41 2016 GMT
            Not After : Nov  7 15:56:41 2017 GMT
        Subject: OU=realm1, CN=cornelius/emailAddress=user@localhost.localdomain
        Subject Public Key Info:
            Public Key Algorithm: rsaEncryption
                Public-Key: (2048 bit)
                Modulus:
                    00:c4:df:fa:f4:88:00:dd:c8:21:f7:d5:3f:24:3b:
                    f9:0f:4f:30:74:22:20:24:32:40:73:cf:fb:1c:92:
                    07:11:6c:b8:fc:a6:72:6a:fc:96:ce:ee:1d:90:3e:
                    be:c9:ad:93:be:7a:3d:f8:48:0a:e1:26:f4:92:b5:
                    0e:c0:ad:fd:f1:6f:93:87:05:35:bf:6f:e0:be:ac:
                    c0:fa:5c:c5:6a:01:eb:54:35:cd:f4:78:05:c7:bd:
                    21:a7:84:65:9c:8b:fe:ba:a1:13:a5:49:b7:22:73:
                    a9:18:09:77:5a:52:e5:76:b2:af:9a:e4:0b:57:64:
                    f1:d3:52:93:c4:79:d2:7c:f6:10:f7:ea:ff:13:ac:
                    12:27:ab:8c:b6:1a:73:b6:4c:f0:a5:60:fd:95:7b:
                    af:60:cd:9c:f9:76:cd:4f:f4:64:8e:2f:69:e0:76:
                    d5:90:37:1d:90:0c:64:4c:74:bb:fe:c0:23:ca:89:
                    ea:a0:3a:4d:8d:fe:3e:bb:ce:a6:6a:b4:4c:8f:da:
                    88:f1:b1:7b:4a:4b:5e:6b:3c:0a:0c:bc:b1:e3:ac:
                    99:13:1b:1e:a1:c1:e5:95:d6:18:33:f6:91:38:d0:
                    07:c8:35:f8:89:8a:76:7e:d8:38:fd:61:a0:c3:a6:
                    29:8e:d1:d0:ff:97:6a:82:d0:65:a6:51:32:dc:6c:
                    46:fb
                Exponent: 65537 (0x10001)
        X509v3 extensions:
            X509v3 Key Usage: 
                Digital Signature, Key Encipherment
            X509v3 Basic Constraints: 
                CA:FALSE
            Netscape Cert Type: 
                SSL Server
            Netscape Comment: 
                OpenSSL Generated Server Certificate
            X509v3 Subject Key Identifier: 
                E7:E8:76:4F:74:FA:79:F6:49:77:46:5D:67:B4:11:FC:AD:A4:0A:9E
            X509v3 Authority Key Identifier: 
                keyid:F4:A7:C0:CC:91:46:AF:64:F3:91:F2:27:F8:C8:B2:6F:8A:87:32:73
                DirName:/C=DE/ST=Hessen/O=privacyidea/CN=CA001
                serial:FB:C8:EB:AC:83:CD:12:07

            X509v3 Extended Key Usage: 
                TLS Web Server Authentication
    Signature Algorithm: sha1WithRSAEncryption
         28:c7:1b:d4:fd:b7:d9:8a:ca:6a:da:72:9a:dd:45:57:70:c6:
         8f:4c:d0:61:cd:12:b1:52:58:86:5f:4f:54:7c:fc:4f:ef:25:
         90:8b:b5:67:1a:65:05:8d:6a:14:62:37:55:62:bf:79:d3:24:
         df:91:f5:83:fe:c5:96:d6:d0:68:cb:fe:a5:59:6e:a8:2c:49:
         fa:6a:45:4f:95:17:aa:c6:80:38:18:f9:99:e7:1a:90:77:fd:
         67:bb:dd:f4:2f:84:31:d1:9e:87:ea:f8:6c:a5:ff:66:65:35:
         1f:85:8b:ff:9a:a8:1a:95:f4:7d:e0:6d:dc:aa:3f:fe:43:97:
         d6:9a:fb:4f:d1:b7:15:5d:6a:e3:72:d1:a1:8c:4b:08:94:d6:
         9a:7d:70:4d:ac:c0:2e:f5:98:ab:0d:f1:29:db:e2:f0:9c:36:
         76:5a:f8:b9:43:db:29:03:34:db:09:01:2d:b7:99:dd:a9:cc:
         d9:bf:f6:0c:75:51:64:69:25:29:37:ce:11:d6:ad:2a:2e:76:
         dd:87:f1:b2:52:f6:a6:4e:1f:dd:29:d2:b5:ef:3a:6f:20:73:
         09:04:a3:9a:95:06:a3:e2:2c:08:34:85:16:7e:58:ad:8a:de:
         f7:78:4a:3e:ba:dd:ef:1c:a3:b0:e5:5e:bf:07:7b:d5:4b:d5:
         61:b5:d6:5b
-----BEGIN CERTIFICATE-----
MIIEIjCCAwqgAwIBAgIEEAAAzjANBgkqhkiG9w0BAQUFADBEMQswCQYDVQQGEwJE
RTEPMA0GA1UECAwGSGVzc2VuMRQwEgYDVQQKDAtwcml2YWN5aWRlYTEOMAwGA1UE
AwwFQ0EwMDEwHhcNMTYxMTA3MTU1NjQxWhcNMTcxMTA3MTU1NjQxWjBQMQ8wDQYD
VQQLDAZyZWFsbTExEjAQBgNVBAMMCWNvcm5lbGl1czEpMCcGCSqGSIb3DQEJARYa
dXNlckBsb2NhbGhvc3QubG9jYWxkb21haW4wggEiMA0GCSqGSIb3DQEBAQUAA4IB
DwAwggEKAoIBAQDE3/r0iADdyCH31T8kO/kPTzB0IiAkMkBzz/sckgcRbLj8pnJq
/JbO7h2QPr7JrZO+ej34SArhJvSStQ7Arf3xb5OHBTW/b+C+rMD6XMVqAetUNc30
eAXHvSGnhGWci/66oROlSbcic6kYCXdaUuV2sq+a5AtXZPHTUpPEedJ89hD36v8T
rBInq4y2GnO2TPClYP2Ve69gzZz5ds1P9GSOL2ngdtWQNx2QDGRMdLv+wCPKieqg
Ok2N/j67zqZqtEyP2ojxsXtKS15rPAoMvLHjrJkTGx6hweWV1hgz9pE40AfINfiJ
inZ+2Dj9YaDDpimO0dD/l2qC0GWmUTLcbEb7AgMBAAGjggEOMIIBCjALBgNVHQ8E
BAMCBaAwCQYDVR0TBAIwADARBglghkgBhvhCAQEEBAMCBkAwMwYJYIZIAYb4QgEN
BCYWJE9wZW5TU0wgR2VuZXJhdGVkIFNlcnZlciBDZXJ0aWZpY2F0ZTAdBgNVHQ4E
FgQU5+h2T3T6efZJd0ZdZ7QR/K2kCp4wdAYDVR0jBG0wa4AU9KfAzJFGr2TzkfIn
+Miyb4qHMnOhSKRGMEQxCzAJBgNVBAYTAkRFMQ8wDQYDVQQIDAZIZXNzZW4xFDAS
BgNVBAoMC3ByaXZhY3lpZGVhMQ4wDAYDVQQDDAVDQTAwMYIJAPvI66yDzRIHMBMG
A1UdJQQMMAoGCCsGAQUFBwMBMA0GCSqGSIb3DQEBBQUAA4IBAQAoxxvU/bfZispq
2nKa3UVXcMaPTNBhzRKxUliGX09UfPxP7yWQi7VnGmUFjWoUYjdVYr950yTfkfWD
/sWW1tBoy/6lWW6oLEn6akVPlReqxoA4GPmZ5xqQd/1nu930L4Qx0Z6H6vhspf9m
ZTUfhYv/mqgalfR94G3cqj/+Q5fWmvtP0bcVXWrjctGhjEsIlNaafXBNrMAu9Zir
DfEp2+LwnDZ2Wvi5Q9spAzTbCQEtt5ndqczZv/YMdVFkaSUpN84R1q0qLnbdh/Gy
UvamTh/dKdK17zpvIHMJBKOalQaj4iwINIUWflitit73eEo+ut3vHKOw5V6/B3vV
S9VhtdZb
-----END CERTIFICATE-----
