Certificate:
    Data:
        Version: 3 (0x2)
        Serial Number: 268435668 (0x100000d4)
    Signature Algorithm: sha1WithRSAEncryption
        Issuer: C=DE, ST=Hessen, O=privacyidea, CN=CA001
        Validity
            Not Before: Oct 24 15:49:33 2016 GMT
            Not After : Oct 24 15:49:33 2017 GMT
        Subject: C=DE, ST=Hessen, O=privacyidea, CN=requester.localdomain
        Subject Public Key Info:
            Public Key Algorithm: rsaEncryption
                Public-Key: (2048 bit)
                Modulus:
                    00:cd:be:14:4f:fa:ce:01:3f:42:22:1b:1d:9c:af:
                    dd:92:d2:7f:db:6c:b7:3e:39:43:43:6b:13:03:f1:
                    05:f4:07:74:bc:76:69:28:0b:af:19:8e:d7:fc:e3:
                    cd:c6:58:f2:ca:7f:08:6d:53:fc:07:02:44:24:c6:
                    b4:34:4c:8c:04:fe:33:0e:40:e2:20:ba:02:73:5a:
                    f7:f5:4f:63:6e:cc:c6:b6:df:54:1d:37:39:7d:51:
                    36:26:5f:bd:dc:3f:a8:8b:6b:a2:ae:b6:9d:d6:21:
                    e7:df:41:b8:7a:28:2a:68:48:ca:a8:2d:ed:e1:e9:
                    46:5e:5a:72:6d:b4:84:38:87:91:fd:94:11:0b:28:
                    84:c6:c2:2f:2a:fb:01:f9:36:7a:09:75:d1:33:88:
                    3c:73:41:5b:c8:bf:94:89:70:a1:f0:c0:b9:2e:50:
                    53:1e:b1:17:64:69:f4:2d:81:e0:a9:0d:0e:32:e9:
                    ba:55:8a:85:f1:1b:6f:49:79:b4:7f:88:c3:0d:3e:
                    54:88:9b:3d:1f:38:8c:04:f3:ee:6a:63:2b:f5:c6:
                    db:b4:83:aa:c4:78:41:3a:7d:4b:e1:c8:3e:71:ca:
                    1b:61:59:ea:c6:c4:ca:32:5e:c9:e9:bf:12:29:e6:
                    c6:c3:63:fe:a0:55:da:7a:f1:60:98:4d:26:ed:fa:
                    70:2d
                Exponent: 65537 (0x10001)
        X509v3 extensions:
            X509v3 Key Usage: 
                Digital Signature, Key Encipherment
            X509v3 Basic Constraints: 
                CA:FALSE
            Netscape Cert Type: 
                SSL Server
            Netscape Comment: 
                OpenSSL Generated Server Certificate
            X509v3 Subject Key Identifier: 
                53:3F:ED:5D:09:07:B3:65:7B:AB:45:C9:24:5B:09:77:80:0A:96:ED
            X509v3 Authority Key Identifier: 
                keyid:F4:A7:C0:CC:91:46:AF:64:F3:91:F2:27:F8:C8:B2:6F:8A:87:32:73
                DirName:/C=DE/ST=Hessen/O=privacyidea/CN=CA001
                serial:FB:C8:EB:AC:83:CD:12:07

            X509v3 Extended Key Usage: 
                TLS Web Server Authentication
    Signature Algorithm: sha1WithRSAEncryption
         43:b9:43:66:83:e7:3f:97:e8:a9:7a:d7:a6:cd:0b:c2:2d:8e:
         92:07:dd:54:89:32:de:7e:fc:9e:16:0a:f8:28:df:59:92:79:
         cc:cf:72:e2:25:44:e5:2d:7e:54:70:43:9c:fe:21:89:21:f2:
         ae:e2:0d:12:e8:4b:31:d0:3d:aa:eb:87:61:38:45:d7:b5:6b:
         92:af:00:b9:30:59:4a:eb:a3:6c:07:bf:4e:bc:66:a0:36:b6:
         00:5c:6c:17:21:b1:1a:44:30:74:4b:d6:5c:28:38:ee:7e:a1:
         44:27:47:5c:6c:7b:3c:41:1c:51:de:33:ba:dc:e8:3f:b3:7c:
         08:23:6f:fe:4d:fe:c2:1c:73:17:ab:9d:e8:7e:7d:e8:27:23:
         27:f0:dc:66:1a:00:35:3b:e9:6a:8f:de:de:09:71:27:a2:50:
         2b:03:dd:01:b0:da:02:a7:01:d7:7b:9f:d2:50:d6:28:aa:43:
         64:ef:a7:5c:02:ce:b5:ab:a1:1d:36:73:f6:a6:71:b9:72:03:
         f6:0e:04:82:d6:d8:4d:1a:42:07:79:4b:45:69:5c:4a:8e:c2:
         f7:fb:a0:06:c4:da:ad:6e:1a:ff:21:4a:4e:04:30:8f:be:9e:
         ea:43:4a:f3:5b:6f:07:49:d0:14:71:4f:44:70:1d:65:70:de:
         d8:de:8e:0e
-----BEGIN CERTIFICATE-----
MIIEJjCCAw6gAwIBAgIEEAAA1DANBgkqhkiG9w0BAQUFADBEMQswCQYDVQQGEwJE
RTEPMA0GA1UECAwGSGVzc2VuMRQwEgYDVQQKDAtwcml2YWN5aWRlYTEOMAwGA1UE
AwwFQ0EwMDEwHhcNMTYxMDI0MTU0OTMzWhcNMTcxMDI0MTU0OTMzWjBUMQswCQYD
VQQGEwJERTEPMA0GA1UECAwGSGVzc2VuMRQwEgYDVQQKDAtwcml2YWN5aWRlYTEe
MBwGA1UEAwwVcmVxdWVzdGVyLmxvY2FsZG9tYWluMIIBIjANBgkqhkiG9w0BAQEF
AAOCAQ8AMIIBCgKCAQEAzb4UT/rOAT9CIhsdnK/dktJ/22y3PjlDQ2sTA/EF9Ad0
vHZpKAuvGY7X/OPNxljyyn8IbVP8BwJEJMa0NEyMBP4zDkDiILoCc1r39U9jbszG
tt9UHTc5fVE2Jl+93D+oi2uirrad1iHn30G4eigqaEjKqC3t4elGXlpybbSEOIeR
/ZQRCyiExsIvKvsB+TZ6CXXRM4g8c0FbyL+UiXCh8MC5LlBTHrEXZGn0LYHgqQ0O
Mum6VYqF8RtvSXm0f4jDDT5UiJs9HziMBPPuamMr9cbbtIOqxHhBOn1L4cg+ccob
YVnqxsTKMl7J6b8SKebGw2P+oFXaevFgmE0m7fpwLQIDAQABo4IBDjCCAQowCwYD
VR0PBAQDAgWgMAkGA1UdEwQCMAAwEQYJYIZIAYb4QgEBBAQDAgZAMDMGCWCGSAGG
+EIBDQQmFiRPcGVuU1NMIEdlbmVyYXRlZCBTZXJ2ZXIgQ2VydGlmaWNhdGUwHQYD
VR0OBBYEFFM/7V0JB7Nle6tFySRbCXeACpbtMHQGA1UdIwRtMGuAFPSnwMyRRq9k
85HyJ/jIsm+KhzJzoUikRjBEMQswCQYDVQQGEwJERTEPMA0GA1UECAwGSGVzc2Vu
MRQwEgYDVQQKDAtwcml2YWN5aWRlYTEOMAwGA1UEAwwFQ0EwMDGCCQD7yOusg80S
BzATBgNVHSUEDDAKBggrBgEFBQcDATANBgkqhkiG9w0BAQUFAAOCAQEAQ7lDZoPn
P5foqXrXps0Lwi2OkgfdVIky3n78nhYK+CjfWZJ5zM9y4iVE5S1+VHBDnP4hiSHy
ruINEuhLMdA9quuHYThF17Vrkq8AuTBZSuujbAe/TrxmoDa2AFxsFyGxGkQwdEvW
XCg47n6hRCdHXGx7PEEcUd4zutzoP7N8CCNv/k3+whxzF6ud6H596CcjJ/DcZhoA
NTvpao/e3glxJ6JQKwPdAbDaAqcB13uf0lDWKKpDZO+nXALOtauhHTZz9qZxuXID
9g4EgtbYTRpCB3lLRWlcSo7C9/ugBsTarW4a/yFKTgQwj76e6kNK81tvB0nQFHFP
RHAdZXDe2N6ODg==
-----END CERTIFICATE-----
