Certificate:
    Data:
        Version: 3 (0x2)
        Serial Number: 268435669 (0x100000d5)
    Signature Algorithm: sha1WithRSAEncryption
        Issuer: C=DE, ST=Hessen, O=privacyidea, CN=CA001
        Validity
            Not Before: Oct 24 15:49:35 2016 GMT
            Not After : Oct 24 15:49:35 2017 GMT
        Subject: OU=realm1, CN=cornelius/emailAddress=user@localhost.localdomain
        Subject Public Key Info:
            Public Key Algorithm: rsaEncryption
                Public-Key: (2048 bit)
                Modulus:
                    00:d2:1d:49:7f:98:32:a2:2f:41:f8:bb:aa:89:e9:
                    18:d0:5f:7e:5b:f6:a6:cc:5e:cd:49:90:34:ec:a7:
                    84:da:eb:4a:23:e8:ed:b2:62:97:a6:86:73:48:21:
                    38:5f:7c:96:94:fc:b9:a3:ff:c7:fa:f1:4e:4a:e3:
                    05:ab:b5:73:19:03:c8:13:18:b0:1d:89:6a:5f:47:
                    43:24:29:b4:92:1c:0e:9d:75:ed:f8:d5:aa:97:5f:
                    da:08:16:5a:29:5b:2b:1c:4e:ff:09:7f:4e:e1:41:
                    0c:60:81:85:a6:e0:cb:92:01:23:f2:96:8e:7e:4b:
                    72:99:5c:40:00:96:2c:e2:ac:5b:29:6a:96:73:f2:
                    4d:92:98:2d:37:2e:d4:fa:af:02:d3:07:1c:fd:6a:
                    42:b1:8b:ed:23:d6:5a:3c:a3:d8:94:a7:b7:aa:f4:
                    59:17:15:34:54:74:95:13:13:03:4e:eb:06:81:5f:
                    d3:75:f2:e8:83:52:b7:3c:96:05:34:a1:8e:21:c9:
                    fd:d1:de:9b:10:7a:db:04:d7:4e:bb:0f:65:f6:a3:
                    a5:7c:7c:d1:f3:bf:7a:14:be:9f:0a:dd:58:b1:92:
                    6f:94:ee:c6:aa:9f:10:6a:c8:d2:0b:6d:d6:18:74:
                    d8:9a:5f:fb:8d:bc:7f:46:4f:75:b5:48:85:0b:8d:
                    d2:63
                Exponent: 65537 (0x10001)
        X509v3 extensions:
            X509v3 Key Usage: 
                Digital Signature, Key Encipherment
            X509v3 Basic Constraints: 
                CA:FALSE
            Netscape Cert Type: 
                SSL Server
            Netscape Comment: 
                OpenSSL Generated Server Certificate
            X509v3 Subject Key Identifier: 
                36:55:02:4B:7D:E6:63:31:D2:C7:9D:C7:BF:1D:E7:5B:FE:6F:94:17
            X509v3 Authority Key Identifier: 
                keyid:F4:A7:C0:CC:91:46:AF:64:F3:91:F2:27:F8:C8:B2:6F:8A:87:32:73
                DirName:/C=DE/ST=Hessen/O=privacyidea/CN=CA001
                serial:FB:C8:EB:AC:83:CD:12:07

            X509v3 Extended Key Usage: 
                TLS Web Server Authentication
    Signature Algorithm: sha1WithRSAEncryption
         30:85:20:ac:97:e1:2e:cf:3c:07:ee:65:34:ff:9c:02:46:93:
         c4:3a:37:bf:f6:a0:42:36:30:56:86:40:bc:24:95:b8:08:dd:
         18:59:4f:95:10:e2:fb:ae:39:65:43:3b:28:7d:03:38:02:c3:
         70:cb:fe:a6:77:cf:4e:20:32:88:fa:18:e2:9f:5b:f3:82:58:
         32:88:4d:3b:f9:59:64:07:0a:9c:c7:58:3f:83:2d:d0:eb:4a:
         6c:f1:8c:49:1e:a4:e3:35:0d:9a:6b:22:03:ec:9d:0c:d7:f5:
         1b:e2:40:8b:25:0c:17:a8:18:e9:37:b1:9c:63:98:e5:f7:c0:
         d3:de:90:ca:2c:1a:69:03:ce:52:66:63:08:fc:2d:00:97:81:
         25:76:8c:d3:8b:4e:0d:30:84:7c:14:2c:fe:cc:00:e3:26:41:
         d8:46:de:a8:ff:2e:f4:8c:f9:b0:fb:c0:77:00:6c:1c:79:a9:
         01:78:ca:49:8d:6f:8c:e4:49:fb:7e:34:23:3e:96:8f:d9:69:
         bb:fd:68:a1:a4:17:fc:c3:88:a9:ef:3b:cd:ef:89:fc:70:fa:
         e6:a6:1b:b5:19:5e:ad:b3:84:62:01:1d:59:b3:30:59:c5:16:
         35:57:e6:6c:e6:0e:95:3b:5f:6f:82:84:7c:2f:f0:0a:3d:44:
         6e:ae:b8:ae
-----BEGIN CERTIFICATE-----
MIIEIjCCAwqgAwIBAgIEEAAA1TANBgkqhkiG9w0BAQUFADBEMQswCQYDVQQGEwJE
RTEPMA0GA1UECAwGSGVzc2VuMRQwEgYDVQQKDAtwcml2YWN5aWRlYTEOMAwGA1UE
AwwFQ0EwMDEwHhcNMTYxMDI0MTU0OTM1WhcNMTcxMDI0MTU0OTM1WjBQMQ8wDQYD
VQQLDAZyZWFsbTExEjAQBgNVBAMMCWNvcm5lbGl1czEpMCcGCSqGSIb3DQEJARYa
dXNlckBsb2NhbGhvc3QubG9jYWxkb21haW4wggEiMA0GCSqGSIb3DQEBAQUAA4IB
DwAwggEKAoIBAQDSHUl/mDKiL0H4u6qJ6RjQX35b9qbMXs1JkDTsp4Ta60oj6O2y
YpemhnNIIThffJaU/Lmj/8f68U5K4wWrtXMZA8gTGLAdiWpfR0MkKbSSHA6dde34
1aqXX9oIFlopWyscTv8Jf07hQQxggYWm4MuSASPylo5+S3KZXEAAlizirFspapZz
8k2SmC03LtT6rwLTBxz9akKxi+0j1lo8o9iUp7eq9FkXFTRUdJUTEwNO6waBX9N1
8uiDUrc8lgU0oY4hyf3R3psQetsE1067D2X2o6V8fNHzv3oUvp8K3Vixkm+U7saq
nxBqyNILbdYYdNiaX/uNvH9GT3W1SIULjdJjAgMBAAGjggEOMIIBCjALBgNVHQ8E
BAMCBaAwCQYDVR0TBAIwADARBglghkgBhvhCAQEEBAMCBkAwMwYJYIZIAYb4QgEN
BCYWJE9wZW5TU0wgR2VuZXJhdGVkIFNlcnZlciBDZXJ0aWZpY2F0ZTAdBgNVHQ4E
FgQUNlUCS33mYzHSx53Hvx3nW/5vlBcwdAYDVR0jBG0wa4AU9KfAzJFGr2TzkfIn
+Miyb4qHMnOhSKRGMEQxCzAJBgNVBAYTAkRFMQ8wDQYDVQQIDAZIZXNzZW4xFDAS
BgNVBAoMC3ByaXZhY3lpZGVhMQ4wDAYDVQQDDAVDQTAwMYIJAPvI66yDzRIHMBMG
A1UdJQQMMAoGCCsGAQUFBwMBMA0GCSqGSIb3DQEBBQUAA4IBAQAwhSCsl+EuzzwH
7mU0/5wCRpPEOje/9qBCNjBWhkC8JJW4CN0YWU+VEOL7rjllQzsofQM4AsNwy/6m
d89OIDKI+hjin1vzglgyiE07+VlkBwqcx1g/gy3Q60ps8YxJHqTjNQ2aayID7J0M
1/Ub4kCLJQwXqBjpN7GcY5jl98DT3pDKLBppA85SZmMI/C0Al4EldozTi04NMIR8
FCz+zADjJkHYRt6o/y70jPmw+8B3AGwceakBeMpJjW+M5En7fjQjPpaP2Wm7/Wih
pBf8w4ip7zvN74n8cPrmphu1GV6ts4RiAR1ZszBZxRY1V+Zs5g6VO19vgoR8L/AK
PURurriu
-----END CERTIFICATE-----
