Certificate:
    Data:
        Version: 3 (0x2)
        Serial Number: 268435667 (0x100000d3)
    Signature Algorithm: sha1WithRSAEncryption
        Issuer: C=DE, ST=Hessen, O=privacyidea, CN=CA001
        Validity
            Not Before: Oct 24 15:45:51 2016 GMT
            Not After : Oct 24 15:45:51 2017 GMT
        Subject: CN=Steve Test/emailAddress=steve@openssl.org
        Subject Public Key Info:
            Public Key Algorithm: rsaEncryption
                Public-Key: (2048 bit)
                Modulus:
                    00:d2:81:89:20:51:48:0f:73:f4:11:32:24:d5:1f:
                    1c:fd:5c:f5:b6:e6:c5:f0:52:81:dc:d2:af:66:4a:
                    7c:93:31:61:5c:af:d1:6d:06:70:03:60:7c:72:0c:
                    88:dd:49:cd:9e:02:6c:d2:5a:d7:53:0f:f3:da:be:
                    69:64:b5:0f:0c:00:e3:b3:50:47:a3:b3:9b:ba:13:
                    50:d6:58:5a:4b:ab:39:e0:11:ca:0a:27:67:03:78:
                    22:66:6d:92:1e:1b:5c:49:ae:e6:6b:d1:8e:3b:9d:
                    06:d3:c6:ac:4d:53:43:10:ab:e8:96:c1:87:82:97:
                    99:8f:20:d3:99:12:37:31:84:e1:8a:ff:29:03:5f:
                    22:90:3e:7f:9b:e0:20:c1:ad:dc:ae:4c:39:1a:31:
                    96:17:02:8c:b2:d9:b4:0d:20:12:9b:7d:86:54:fd:
                    33:fd:c1:2a:62:46:f8:60:96:cf:6e:01:6f:22:df:
                    13:47:e7:97:ec:05:72:23:a3:62:f8:fa:ef:ac:9c:
                    72:f0:37:cb:2f:37:cf:90:a8:27:51:86:c6:d7:78:
                    08:8f:7e:25:a2:15:70:a2:fb:1c:b6:15:5e:a0:97:
                    8b:81:4c:09:28:8a:27:3b:94:bc:71:db:5b:71:37:
                    9a:2b:16:e0:6f:b5:c9:f5:4b:4f:20:ba:65:cf:af:
                    ad:ad
                Exponent: 65537 (0x10001)
        X509v3 extensions:
            X509v3 Key Usage: 
                Digital Signature, Key Encipherment
            X509v3 Basic Constraints: 
                CA:FALSE
            Netscape Cert Type: 
                SSL Server
            Netscape Comment: 
                OpenSSL Generated Server Certificate
            X509v3 Subject Key Identifier: 
                E5:25:6D:3E:AF:0D:DD:3F:4C:F2:45:19:39:D5:14:DB:7E:9C:C0:AD
            X509v3 Authority Key Identifier: 
                keyid:F4:A7:C0:CC:91:46:AF:64:F3:91:F2:27:F8:C8:B2:6F:8A:87:32:73
                DirName:/C=DE/ST=Hessen/O=privacyidea/CN=CA001
                serial:FB:C8:EB:AC:83:CD:12:07

            X509v3 Extended Key Usage: 
                TLS Web Server Authentication
    Signature Algorithm: sha1WithRSAEncryption
         33:5c:50:a9:19:52:80:64:7b:c9:dc:27:c4:0d:f7:76:7d:27:
         5a:6a:9d:19:cb:17:20:58:bc:29:36:8a:ea:f4:93:f1:2e:23:
         5b:f3:d3:00:5d:83:f8:e5:ff:a1:a3:23:58:5d:73:b5:f5:58:
         61:a2:6e:c6:13:06:1a:44:53:ff:65:5c:3b:bd:74:1b:97:57:
         7a:57:e8:46:60:2c:11:02:b0:4b:96:73:44:9f:ae:b4:a8:99:
         b8:0d:0f:2d:c1:b8:1b:c6:77:a0:db:96:06:9a:c1:51:da:15:
         13:d5:56:02:c4:7b:80:38:32:37:4d:fa:2c:ed:d6:93:17:07:
         e6:8f:16:cf:6d:33:22:1e:9d:a5:49:15:0d:03:af:40:72:30:
         5e:7a:fb:8a:ac:21:b6:4b:cd:4e:e0:ad:21:41:c5:4d:2d:5b:
         1b:b9:1c:5e:46:1e:a3:5a:be:75:08:ea:ff:d4:76:b6:d8:dc:
         92:77:d1:b2:19:8c:f3:19:f4:b3:01:62:84:07:a6:78:5b:1b:
         0b:d8:b6:2a:19:da:96:1e:4d:d6:27:22:66:8c:07:dc:98:f9:
         6d:2c:86:be:02:d0:51:9a:33:77:a5:35:88:2a:2b:bf:b7:59:
         74:3b:ea:d4:f4:4a:f1:d2:bf:b2:b1:d4:5f:33:a1:ef:94:14:
         fb:1d:d3:8a
-----BEGIN CERTIFICATE-----
MIIECTCCAvGgAwIBAgIEEAAA0zANBgkqhkiG9w0BAQUFADBEMQswCQYDVQQGEwJE
RTEPMA0GA1UECAwGSGVzc2VuMRQwEgYDVQQKDAtwcml2YWN5aWRlYTEOMAwGA1UE
AwwFQ0EwMDEwHhcNMTYxMDI0MTU0NTUxWhcNMTcxMDI0MTU0NTUxWjA3MRMwEQYD
VQQDDApTdGV2ZSBUZXN0MSAwHgYJKoZIhvcNAQkBFhFzdGV2ZUBvcGVuc3NsLm9y
ZzCCASIwDQYJKoZIhvcNAQEBBQADggEPADCCAQoCggEBANKBiSBRSA9z9BEyJNUf
HP1c9bbmxfBSgdzSr2ZKfJMxYVyv0W0GcANgfHIMiN1JzZ4CbNJa11MP89q+aWS1
DwwA47NQR6Ozm7oTUNZYWkurOeARygonZwN4ImZtkh4bXEmu5mvRjjudBtPGrE1T
QxCr6JbBh4KXmY8g05kSNzGE4Yr/KQNfIpA+f5vgIMGt3K5MORoxlhcCjLLZtA0g
Ept9hlT9M/3BKmJG+GCWz24BbyLfE0fnl+wFciOjYvj676yccvA3yy83z5CoJ1GG
xtd4CI9+JaIVcKL7HLYVXqCXi4FMCSiKJzuUvHHbW3E3misW4G+1yfVLTyC6Zc+v
ra0CAwEAAaOCAQ4wggEKMAsGA1UdDwQEAwIFoDAJBgNVHRMEAjAAMBEGCWCGSAGG
+EIBAQQEAwIGQDAzBglghkgBhvhCAQ0EJhYkT3BlblNTTCBHZW5lcmF0ZWQgU2Vy
dmVyIENlcnRpZmljYXRlMB0GA1UdDgQWBBTlJW0+rw3dP0zyRRk51RTbfpzArTB0
BgNVHSMEbTBrgBT0p8DMkUavZPOR8if4yLJviocyc6FIpEYwRDELMAkGA1UEBhMC
REUxDzANBgNVBAgMBkhlc3NlbjEUMBIGA1UECgwLcHJpdmFjeWlkZWExDjAMBgNV
BAMMBUNBMDAxggkA+8jrrIPNEgcwEwYDVR0lBAwwCgYIKwYBBQUHAwEwDQYJKoZI
hvcNAQEFBQADggEBADNcUKkZUoBke8ncJ8QN93Z9J1pqnRnLFyBYvCk2iur0k/Eu
I1vz0wBdg/jl/6GjI1hdc7X1WGGibsYTBhpEU/9lXDu9dBuXV3pX6EZgLBECsEuW
c0SfrrSombgNDy3BuBvGd6DblgaawVHaFRPVVgLEe4A4MjdN+izt1pMXB+aPFs9t
MyIenaVJFQ0Dr0ByMF56+4qsIbZLzU7grSFBxU0tWxu5HF5GHqNavnUI6v/UdrbY
3JJ30bIZjPMZ9LMBYoQHpnhbGwvYtioZ2pYeTdYnImaMB9yY+W0shr4C0FGaM3el
NYgqK7+3WXQ76tT0SvHSv7Kx1F8zoe+UFPsd04o=
-----END CERTIFICATE-----
