Certificate:
    Data:
        Version: 3 (0x2)
        Serial Number: 268435660 (0x100000cc)
    Signature Algorithm: sha1WithRSAEncryption
        Issuer: C=DE, ST=Hessen, O=privacyidea, CN=CA001
        Validity
            Not Before: Nov  7 15:52:52 2016 GMT
            Not After : Nov  7 15:52:52 2017 GMT
        Subject: CN=Steve Test/emailAddress=steve@openssl.org
        Subject Public Key Info:
            Public Key Algorithm: rsaEncryption
                Public-Key: (2048 bit)
                Modulus:
                    00:d2:81:89:20:51:48:0f:73:f4:11:32:24:d5:1f:
                    1c:fd:5c:f5:b6:e6:c5:f0:52:81:dc:d2:af:66:4a:
                    7c:93:31:61:5c:af:d1:6d:06:70:03:60:7c:72:0c:
                    88:dd:49:cd:9e:02:6c:d2:5a:d7:53:0f:f3:da:be:
                    69:64:b5:0f:0c:00:e3:b3:50:47:a3:b3:9b:ba:13:
                    50:d6:58:5a:4b:ab:39:e0:11:ca:0a:27:67:03:78:
                    22:66:6d:92:1e:1b:5c:49:ae:e6:6b:d1:8e:3b:9d:
                    06:d3:c6:ac:4d:53:43:10:ab:e8:96:c1:87:82:97:
                    99:8f:20:d3:99:12:37:31:84:e1:8a:ff:29:03:5f:
                    22:90:3e:7f:9b:e0:20:c1:ad:dc:ae:4c:39:1a:31:
                    96:17:02:8c:b2:d9:b4:0d:20:12:9b:7d:86:54:fd:
                    33:fd:c1:2a:62:46:f8:60:96:cf:6e:01:6f:22:df:
                    13:47:e7:97:ec:05:72:23:a3:62:f8:fa:ef:ac:9c:
                    72:f0:37:cb:2f:37:cf:90:a8:27:51:86:c6:d7:78:
                    08:8f:7e:25:a2:15:70:a2:fb:1c:b6:15:5e:a0:97:
                    8b:81:4c:09:28:8a:27:3b:94:bc:71:db:5b:71:37:
                    9a:2b:16:e0:6f:b5:c9:f5:4b:4f:20:ba:65:cf:af:
                    ad:ad
                Exponent: 65537 (0x10001)
        X509v3 extensions:
            X509v3 Key Usage: 
                Digital Signature, Key Encipherment
            X509v3 Basic Constraints: 
                CA:FALSE
            Netscape Cert Type: 
                SSL Server
            Netscape Comment: 
                OpenSSL Generated Server Certificate
            X509v3 Subject Key Identifier: 
                E5:25:6D:3E:AF:0D:DD:3F:4C:F2:45:19:39:D5:14:DB:7E:9C:C0:AD
            X509v3 Authority Key Identifier: 
                keyid:F4:A7:C0:CC:91:46:AF:64:F3:91:F2:27:F8:C8:B2:6F:8A:87:32:73
                DirName:/C=DE/ST=Hessen/O=privacyidea/CN=CA001
                serial:FB:C8:EB:AC:83:CD:12:07

            X509v3 Extended Key Usage: 
                TLS Web Server Authentication
    Signature Algorithm: sha1WithRSAEncryption
         54:b7:37:42:2c:d1:96:35:ba:b9:04:25:c0:f6:9a:9b:91:40:
         b6:d1:f1:d6:43:d5:13:9f:5d:e6:29:7b:b2:97:d4:09:48:63:
         96:1b:f2:dd:50:c2:aa:4d:48:2d:83:12:ac:02:0c:44:a1:f6:
         2d:2d:6c:7a:5b:77:30:0b:d5:70:5c:ec:4e:e0:06:69:05:ff:
         cf:79:a9:9d:46:a0:d3:5a:ba:ae:cb:2c:b1:c0:20:7f:cd:94:
         c6:2c:56:63:1b:49:a5:6d:aa:a7:67:06:9e:26:fb:20:46:fa:
         9c:8e:4b:64:30:4c:55:0b:e0:cb:3d:d9:cc:ed:10:c9:f7:5a:
         cc:20:e1:66:a1:7d:ee:9d:6f:b2:f6:1a:2a:7e:69:62:66:5e:
         b2:16:32:7a:8a:0c:5e:c8:df:52:e2:55:a1:d2:e0:6d:a2:e9:
         c9:02:c5:10:5b:03:9c:17:b7:58:42:01:c8:1e:30:6f:d1:57:
         f1:2c:ce:a7:e2:ea:aa:2d:88:f6:15:9f:82:70:99:db:c2:d1:
         32:8b:8d:0c:99:cf:85:d4:9c:78:49:dc:a5:64:c0:52:6e:9d:
         c7:d5:0f:47:e3:c1:4b:c3:93:ba:86:9c:3e:0d:94:e4:d1:22:
         41:b4:13:53:6d:5c:69:27:fe:71:d0:ce:3e:c6:d2:9a:1c:a9:
         68:8d:39:b2
-----BEGIN CERTIFICATE-----
MIIECTCCAvGgAwIBAgIEEAAAzDANBgkqhkiG9w0BAQUFADBEMQswCQYDVQQGEwJE
RTEPMA0GA1UECAwGSGVzc2VuMRQwEgYDVQQKDAtwcml2YWN5aWRlYTEOMAwGA1UE
AwwFQ0EwMDEwHhcNMTYxMTA3MTU1MjUyWhcNMTcxMTA3MTU1MjUyWjA3MRMwEQYD
VQQDDApTdGV2ZSBUZXN0MSAwHgYJKoZIhvcNAQkBFhFzdGV2ZUBvcGVuc3NsLm9y
ZzCCASIwDQYJKoZIhvcNAQEBBQADggEPADCCAQoCggEBANKBiSBRSA9z9BEyJNUf
HP1c9bbmxfBSgdzSr2ZKfJMxYVyv0W0GcANgfHIMiN1JzZ4CbNJa11MP89q+aWS1
DwwA47NQR6Ozm7oTUNZYWkurOeARygonZwN4ImZtkh4bXEmu5mvRjjudBtPGrE1T
QxCr6JbBh4KXmY8g05kSNzGE4Yr/KQNfIpA+f5vgIMGt3K5MORoxlhcCjLLZtA0g
Ept9hlT9M/3BKmJG+GCWz24BbyLfE0fnl+wFciOjYvj676yccvA3yy83z5CoJ1GG
xtd4CI9+JaIVcKL7HLYVXqCXi4FMCSiKJzuUvHHbW3E3misW4G+1yfVLTyC6Zc+v
ra0CAwEAAaOCAQ4wggEKMAsGA1UdDwQEAwIFoDAJBgNVHRMEAjAAMBEGCWCGSAGG
+EIBAQQEAwIGQDAzBglghkgBhvhCAQ0EJhYkT3BlblNTTCBHZW5lcmF0ZWQgU2Vy
dmVyIENlcnRpZmljYXRlMB0GA1UdDgQWBBTlJW0+rw3dP0zyRRk51RTbfpzArTB0
BgNVHSMEbTBrgBT0p8DMkUavZPOR8if4yLJviocyc6FIpEYwRDELMAkGA1UEBhMC
REUxDzANBgNVBAgMBkhlc3NlbjEUMBIGA1UECgwLcHJpdmFjeWlkZWExDjAMBgNV
BAMMBUNBMDAxggkA+8jrrIPNEgcwEwYDVR0lBAwwCgYIKwYBBQUHAwEwDQYJKoZI
hvcNAQEFBQADggEBAFS3N0Is0ZY1urkEJcD2mpuRQLbR8dZD1ROfXeYpe7KX1AlI
Y5Yb8t1QwqpNSC2DEqwCDESh9i0tbHpbdzAL1XBc7E7gBmkF/895qZ1GoNNauq7L
LLHAIH/NlMYsVmMbSaVtqqdnBp4m+yBG+pyOS2QwTFUL4Ms92cztEMn3Wswg4Wah
fe6db7L2Gip+aWJmXrIWMnqKDF7I31LiVaHS4G2i6ckCxRBbA5wXt1hCAcgeMG/R
V/Eszqfi6qotiPYVn4JwmdvC0TKLjQyZz4XUnHhJ3KVkwFJuncfVD0fjwUvDk7qG
nD4NlOTRIkG0E1NtXGkn/nHQzj7G0pocqWiNObI=
-----END CERTIFICATE-----
