Certificate:
    Data:
        Version: 3 (0x2)
        Serial Number: 268435657 (0x100000c9)
    Signature Algorithm: sha1WithRSAEncryption
        Issuer: C=DE, ST=Hessen, O=privacyidea, CN=CA001
        Validity
            Not Before: Nov  7 15:51:22 2016 GMT
            Not After : Nov  7 15:51:22 2017 GMT
        Subject: C=DE, ST=Hessen, O=privacyidea, CN=requester.localdomain
        Subject Public Key Info:
            Public Key Algorithm: rsaEncryption
                Public-Key: (2048 bit)
                Modulus:
                    00:cd:be:14:4f:fa:ce:01:3f:42:22:1b:1d:9c:af:
                    dd:92:d2:7f:db:6c:b7:3e:39:43:43:6b:13:03:f1:
                    05:f4:07:74:bc:76:69:28:0b:af:19:8e:d7:fc:e3:
                    cd:c6:58:f2:ca:7f:08:6d:53:fc:07:02:44:24:c6:
                    b4:34:4c:8c:04:fe:33:0e:40:e2:20:ba:02:73:5a:
                    f7:f5:4f:63:6e:cc:c6:b6:df:54:1d:37:39:7d:51:
                    36:26:5f:bd:dc:3f:a8:8b:6b:a2:ae:b6:9d:d6:21:
                    e7:df:41:b8:7a:28:2a:68:48:ca:a8:2d:ed:e1:e9:
                    46:5e:5a:72:6d:b4:84:38:87:91:fd:94:11:0b:28:
                    84:c6:c2:2f:2a:fb:01:f9:36:7a:09:75:d1:33:88:
                    3c:73:41:5b:c8:bf:94:89:70:a1:f0:c0:b9:2e:50:
                    53:1e:b1:17:64:69:f4:2d:81:e0:a9:0d:0e:32:e9:
                    ba:55:8a:85:f1:1b:6f:49:79:b4:7f:88:c3:0d:3e:
                    54:88:9b:3d:1f:38:8c:04:f3:ee:6a:63:2b:f5:c6:
                    db:b4:83:aa:c4:78:41:3a:7d:4b:e1:c8:3e:71:ca:
                    1b:61:59:ea:c6:c4:ca:32:5e:c9:e9:bf:12:29:e6:
                    c6:c3:63:fe:a0:55:da:7a:f1:60:98:4d:26:ed:fa:
                    70:2d
                Exponent: 65537 (0x10001)
        X509v3 extensions:
            X509v3 Key Usage: 
                Digital Signature, Key Encipherment
            X509v3 Basic Constraints: 
                CA:FALSE
            Netscape Cert Type: 
                SSL Server
            Netscape Comment: 
                OpenSSL Generated Server Certificate
            X509v3 Subject Key Identifier: 
                53:3F:ED:5D:09:07:B3:65:7B:AB:45:C9:24:5B:09:77:80:0A:96:ED
            X509v3 Authority Key Identifier: 
                keyid:F4:A7:C0:CC:91:46:AF:64:F3:91:F2:27:F8:C8:B2:6F:8A:87:32:73
                DirName:/C=DE/ST=Hessen/O=privacyidea/CN=CA001
                serial:FB:C8:EB:AC:83:CD:12:07

            X509v3 Extended Key Usage: 
                TLS Web Server Authentication
    Signature Algorithm: sha1WithRSAEncryption
         ae:93:46:1c:e5:ec:32:28:41:15:bb:74:86:bb:5e:ec:0a:49:
         5c:11:09:08:b8:a8:31:39:30:9e:44:9a:16:15:b1:2a:c1:23:
         57:80:e5:bb:96:ad:5c:f3:f6:8a:67:4a:fc:1a:a5:db:63:0b:
         3b:ee:05:79:29:57:b9:ab:ce:a7:d4:03:80:6d:93:b4:ec:2e:
         d5:67:0f:8f:ea:ce:d7:b1:cf:e7:b1:17:72:ac:51:ce:d0:71:
         b7:3f:89:fe:c1:3e:e3:a3:cb:14:4f:97:01:3b:40:f5:57:81:
         34:cf:96:68:e2:1d:e6:e6:41:ac:53:eb:4d:d8:12:7c:3d:21:
         9f:58:9e:e1:51:4a:cd:7f:ef:bb:fd:ae:67:06:57:ff:43:e6:
         f8:43:31:26:ad:0b:71:37:6a:09:94:05:29:5a:c0:83:c7:4f:
         02:71:88:90:7e:b4:db:24:32:24:de:60:1a:95:4d:2d:8f:8c:
         21:b2:0a:f5:cc:2a:4e:12:09:0f:4b:27:da:81:85:f2:eb:f8:
         3a:7e:96:b2:a1:55:ac:35:c4:4f:1e:c4:79:49:76:55:18:8c:
         13:c0:22:f4:6c:d1:f8:77:9a:e2:dc:f3:d8:49:8d:17:5a:bd:
         b0:a3:4d:b1:5a:60:75:26:63:15:bb:a8:fa:69:28:9b:0b:5c:
         87:63:d2:ce
-----BEGIN CERTIFICATE-----
MIIEJjCCAw6gAwIBAgIEEAAAyTANBgkqhkiG9w0BAQUFADBEMQswCQYDVQQGEwJE
RTEPMA0GA1UECAwGSGVzc2VuMRQwEgYDVQQKDAtwcml2YWN5aWRlYTEOMAwGA1UE
AwwFQ0EwMDEwHhcNMTYxMTA3MTU1MTIyWhcNMTcxMTA3MTU1MTIyWjBUMQswCQYD
VQQGEwJERTEPMA0GA1UECAwGSGVzc2VuMRQwEgYDVQQKDAtwcml2YWN5aWRlYTEe
MBwGA1UEAwwVcmVxdWVzdGVyLmxvY2FsZG9tYWluMIIBIjANBgkqhkiG9w0BAQEF
AAOCAQ8AMIIBCgKCAQEAzb4UT/rOAT9CIhsdnK/dktJ/22y3PjlDQ2sTA/EF9Ad0
vHZpKAuvGY7X/OPNxljyyn8IbVP8BwJEJMa0NEyMBP4zDkDiILoCc1r39U9jbszG
tt9UHTc5fVE2Jl+93D+oi2uirrad1iHn30G4eigqaEjKqC3t4elGXlpybbSEOIeR
/ZQRCyiExsIvKvsB+TZ6CXXRM4g8c0FbyL+UiXCh8MC5LlBTHrEXZGn0LYHgqQ0O
Mum6VYqF8RtvSXm0f4jDDT5UiJs9HziMBPPuamMr9cbbtIOqxHhBOn1L4cg+ccob
YVnqxsTKMl7J6b8SKebGw2P+oFXaevFgmE0m7fpwLQIDAQABo4IBDjCCAQowCwYD
VR0PBAQDAgWgMAkGA1UdEwQCMAAwEQYJYIZIAYb4QgEBBAQDAgZAMDMGCWCGSAGG
+EIBDQQmFiRPcGVuU1NMIEdlbmVyYXRlZCBTZXJ2ZXIgQ2VydGlmaWNhdGUwHQYD
VR0OBBYEFFM/7V0JB7Nle6tFySRbCXeACpbtMHQGA1UdIwRtMGuAFPSnwMyRRq9k
85HyJ/jIsm+KhzJzoUikRjBEMQswCQYDVQQGEwJERTEPMA0GA1UECAwGSGVzc2Vu
MRQwEgYDVQQKDAtwcml2YWN5aWRlYTEOMAwGA1UEAwwFQ0EwMDGCCQD7yOusg80S
BzATBgNVHSUEDDAKBggrBgEFBQcDATANBgkqhkiG9w0BAQUFAAOCAQEArpNGHOXs
MihBFbt0hrte7ApJXBEJCLioMTkwnkSaFhWxKsEjV4Dlu5atXPP2imdK/Bql22ML
O+4FeSlXuavOp9QDgG2TtOwu1WcPj+rO17HP57EXcqxRztBxtz+J/sE+46PLFE+X
ATtA9VeBNM+WaOId5uZBrFPrTdgSfD0hn1ie4VFKzX/vu/2uZwZX/0Pm+EMxJq0L
cTdqCZQFKVrAg8dPAnGIkH602yQyJN5gGpVNLY+MIbIK9cwqThIJD0sn2oGF8uv4
On6WsqFVrDXETx7EeUl2VRiME8Ai9GzR+Hea4tzz2EmNF1q9sKNNsVpgdSZjFbuo
+mkomwtch2PSzg==
-----END CERTIFICATE-----
